
file.elf:     file format elf64-littleriscv


Disassembly of section .text:

0000000000000000 
:
       0:	ff010113          	addi	sp,sp,-16
       4:	00112623          	sw	ra,12(sp)
       8:	00812423          	sw	s0,8(sp)
       c:	00912223          	sw	s1,4(sp)
      10:	01212023          	sw	s2,0(sp)
      14:	03200513          	li	a0,50
      18:	00400593          	li	a1,4
      1c:	00400493          	li	s1,4
      20:	0cc000ef          	jal	ra,ec 
      24:	00050413          	mv	s0,a0
      28:	00010937          	lui	s2,0x10
      2c:	04a92823          	sw	a0,80(s2) # 10050 
      30:	00100513          	li	a0,1
      34:	00400593          	li	a1,4
      38:	0b4000ef          	jal	ra,ec 
      3c:	00a42023          	sw	a0,0(s0)
      40:	bf8005b7          	lui	a1,0xbf800
      44:	00b52023          	sw	a1,0(a0)
      48:	0c800513          	li	a0,200
      4c:	05092583          	lw	a1,80(s2)
      50:	0005a603          	lw	a2,0(a1) # ffffffffbf800000 <_sstack+0xffffffffbf5122d4>
      54:	009585b3          	add	a1,a1,s1
      58:	00448493          	addi	s1,s1,4
      5c:	00c5a023          	sw	a2,0(a1)
      60:	fea496e3          	bne	s1,a0,4c 
      64:	00100513          	li	a0,1
      68:	00400593          	li	a1,4
      6c:	080000ef          	jal	ra,ec 
      70:	00050413          	mv	s0,a0
      74:	00010537          	lui	a0,0x10
      78:	04852a23          	sw	s0,84(a0) # 10054 
      7c:	00100513          	li	a0,1
      80:	00400593          	li	a1,4
      84:	068000ef          	jal	ra,ec 
      88:	000105b7          	lui	a1,0x10
      8c:	0505a583          	lw	a1,80(a1) # 10050 
      90:	00a42023          	sw	a0,0(s0)
      94:	0005a583          	lw	a1,0(a1)
      98:	00b52023          	sw	a1,0(a0)
      9c:	248000ef          	jal	ra,2e4 
      a0:	00010437          	lui	s0,0x10
      a4:	0cc42503          	lw	a0,204(s0) # 100cc 
      a8:	02050463          	beqz	a0,d0 
      ac:	00000493          	li	s1,0
      b0:	00010537          	lui	a0,0x10
      b4:	0d050913          	addi	s2,a0,208 # 100d0 
      b8:	00990533          	add	a0,s2,s1
      bc:	00054503          	lbu	a0,0(a0)
      c0:	03c000ef          	jal	ra,fc 
      c4:	0cc42503          	lw	a0,204(s0)
      c8:	00148493          	addi	s1,s1,1
      cc:	fea4e6e3          	bltu	s1,a0,b8 
      d0:	00000513          	li	a0,0
      d4:	00c12083          	lw	ra,12(sp)
      d8:	00812403          	lw	s0,8(sp)
      dc:	00412483          	lw	s1,4(sp)
      e0:	00012903          	lw	s2,0(sp)
      e4:	01010113          	addi	sp,sp,16
      e8:	00008067          	ret

00000000000000ec :
      ec:	00251593          	slli	a1,a0,0x2
      f0:	00020513          	mv	a0,tp
      f4:	00b20233          	add	tp,tp,a1
      f8:	00008067          	ret

00000000000000fc :
      fc:	00050013          	mv	zero,a0
     100:	00008067          	ret

0000000000000104 :
     104:	f00507d3          	fmv.w.x	fa5,a0
     108:	5807f7d3          	fsqrt.s	fa5,fa5
     10c:	e0078553          	fmv.x.w	a0,fa5
     110:	00008067          	ret

0000000000000114 :
     114:	00a577d3          	fadd.s	fa5,fa0,fa0
     118:	00f5a027          	fsw	fa5,0(a1)
     11c:	00008067          	ret

0000000000000120 :
     120:	00000513          	li	a0,0
     124:	00a5a023          	sw	a0,0(a1)
     128:	00008067          	ret

000000000000012c :
     12c:	fd010113          	addi	sp,sp,-48
     130:	02112623          	sw	ra,44(sp)
     134:	02812423          	sw	s0,40(sp)
     138:	03010413          	addi	s0,sp,48
     13c:	fca42e23          	sw	a0,-36(s0)
     140:	fcb42c23          	sw	a1,-40(s0)
     144:	fcc42a23          	sw	a2,-44(s0)
     148:	fd842783          	lw	a5,-40(s0)
     14c:	fef42623          	sw	a5,-20(s0)
     150:	fdc42783          	lw	a5,-36(s0)
     154:	fef42423          	sw	a5,-24(s0)
     158:	0240006f          	j	17c 
     15c:	fec42783          	lw	a5,-20(s0)
     160:	00178713          	addi	a4,a5,1
     164:	fee42623          	sw	a4,-20(s0)
     168:	0007c703          	lbu	a4,0(a5)
     16c:	fe842783          	lw	a5,-24(s0)
     170:	00178693          	addi	a3,a5,1
     174:	fed42423          	sw	a3,-24(s0)
     178:	00e78023          	sb	a4,0(a5)
     17c:	fd442783          	lw	a5,-44(s0)
     180:	fff78713          	addi	a4,a5,-1
     184:	fce42a23          	sw	a4,-44(s0)
     188:	00f037b3          	snez	a5,a5
     18c:	0ff7f793          	andi	a5,a5,255
     190:	fc0796e3          	bnez	a5,15c 
     194:	fd842783          	lw	a5,-40(s0)
     198:	00078513          	mv	a0,a5
     19c:	02c12083          	lw	ra,44(sp)
     1a0:	02812403          	lw	s0,40(sp)
     1a4:	03010113          	addi	sp,sp,48
     1a8:	00008067          	ret
     1ac:	00008067          	ret

00000000000001b0 <__mulsi3>:
     1b0:	fd010113          	addi	sp,sp,-48
     1b4:	02112623          	sw	ra,44(sp)
     1b8:	02812423          	sw	s0,40(sp)
     1bc:	03010413          	addi	s0,sp,48
     1c0:	fca42e23          	sw	a0,-36(s0)
     1c4:	fcb42c23          	sw	a1,-40(s0)
     1c8:	fe042623          	sw	zero,-20(s0)
     1cc:	fe042423          	sw	zero,-24(s0)
     1d0:	03c0006f          	j	20c <__heap_size+0xc>
     1d4:	fe842783          	lw	a5,-24(s0)
     1d8:	fd842703          	lw	a4,-40(s0)
     1dc:	40f757b3          	sra	a5,a4,a5
     1e0:	0017f793          	andi	a5,a5,1
     1e4:	00078e63          	beqz	a5,200 <__heap_size>
     1e8:	fe842783          	lw	a5,-24(s0)
     1ec:	fdc42703          	lw	a4,-36(s0)
     1f0:	00f717b3          	sll	a5,a4,a5
     1f4:	fec42703          	lw	a4,-20(s0)
     1f8:	00f707b3          	add	a5,a4,a5
     1fc:	fef42623          	sw	a5,-20(s0)
     200:	fe842783          	lw	a5,-24(s0)
     204:	00178793          	addi	a5,a5,1
     208:	fef42423          	sw	a5,-24(s0)
     20c:	fe842703          	lw	a4,-24(s0)
     210:	00c00793          	li	a5,12
     214:	fce7d0e3          	ble	a4,a5,1d4 <__mulsi3+0x24>
     218:	fec42783          	lw	a5,-20(s0)
     21c:	00078513          	mv	a0,a5
     220:	02c12083          	lw	ra,44(sp)
     224:	02812403          	lw	s0,40(sp)
     228:	03010113          	addi	sp,sp,48
     22c:	00008067          	ret
     230:	00008067          	ret

0000000000000234 <__udivsi3>:
     234:	fd010113          	addi	sp,sp,-48
     238:	02112623          	sw	ra,44(sp)
     23c:	02812423          	sw	s0,40(sp)
     240:	03010413          	addi	s0,sp,48
     244:	fca42e23          	sw	a0,-36(s0)
     248:	fdc42783          	lw	a5,-36(s0)
     24c:	4037d713          	srai	a4,a5,0x3
     250:	fdc42783          	lw	a5,-36(s0)
     254:	00f707b3          	add	a5,a4,a5
     258:	4017d713          	srai	a4,a5,0x1
     25c:	fdc42783          	lw	a5,-36(s0)
     260:	00f707b3          	add	a5,a4,a5
     264:	4047d793          	srai	a5,a5,0x4
     268:	fef42623          	sw	a5,-20(s0)
     26c:	fec42783          	lw	a5,-20(s0)
     270:	00279713          	slli	a4,a5,0x2
     274:	fec42783          	lw	a5,-20(s0)
     278:	00f707b3          	add	a5,a4,a5
     27c:	00179793          	slli	a5,a5,0x1
     280:	fdc42703          	lw	a4,-36(s0)
     284:	40f707b3          	sub	a5,a4,a5
     288:	00178793          	addi	a5,a5,1
     28c:	fef42423          	sw	a5,-24(s0)
     290:	fe842783          	lw	a5,-24(s0)
     294:	4037d713          	srai	a4,a5,0x3
     298:	fe842783          	lw	a5,-24(s0)
     29c:	00f707b3          	add	a5,a4,a5
     2a0:	4017d713          	srai	a4,a5,0x1
     2a4:	fe842783          	lw	a5,-24(s0)
     2a8:	00f707b3          	add	a5,a4,a5
     2ac:	4047d793          	srai	a5,a5,0x4
     2b0:	fec42703          	lw	a4,-20(s0)
     2b4:	00f707b3          	add	a5,a4,a5
     2b8:	fef42623          	sw	a5,-20(s0)
     2bc:	fe842703          	lw	a4,-24(s0)
     2c0:	00a00793          	li	a5,10
     2c4:	fae7c4e3          	blt	a5,a4,26c <__udivsi3+0x38>
     2c8:	fec42783          	lw	a5,-20(s0)
     2cc:	00078513          	mv	a0,a5
     2d0:	02c12083          	lw	ra,44(sp)
     2d4:	02812403          	lw	s0,40(sp)
     2d8:	03010113          	addi	sp,sp,48
     2dc:	00008067          	ret
     2e0:	00008067          	ret

00000000000002e4 :
     2e4:	ff010113          	addi	sp,sp,-16
     2e8:	00112623          	sw	ra,12(sp)
     2ec:	00010537          	lui	a0,0x10
     2f0:	00c52503          	lw	a0,12(a0) # 1000c 
     2f4:	000105b7          	lui	a1,0x10
     2f8:	0145a583          	lw	a1,20(a1) # 10014 
     2fc:	10000613          	li	a2,256
     300:	00c52023          	sw	a2,0(a0)
     304:	00c52223          	sw	a2,4(a0)
     308:	00058023          	sb	zero,0(a1)
     30c:	2f1000ef          	jal	ra,dfc 
     310:	32c030ef          	jal	ra,363c 
     314:	00000513          	li	a0,0
     318:	00c12083          	lw	ra,12(sp)
     31c:	01010113          	addi	sp,sp,16
     320:	00008067          	ret

0000000000000324 :
     324:	00157613          	andi	a2,a0,1
     328:	00058513          	mv	a0,a1
     32c:	00061463          	bnez	a2,334 
     330:	00008067          	ret
     334:	49c0306f          	j	37d0 

0000000000000338 :
     338:	f00507d3          	fmv.w.x	fa5,a0
     33c:	10f7f7d3          	fmul.s	fa5,fa5,fa5
     340:	e0078553          	fmv.x.w	a0,fa5
     344:	00008067          	ret

0000000000000348 :
     348:	f00507d3          	fmv.w.x	fa5,a0
     34c:	3f000537          	lui	a0,0x3f000
     350:	f0050753          	fmv.w.x	fa4,a0
     354:	10e7f7d3          	fmul.s	fa5,fa5,fa4
     358:	e0078553          	fmv.x.w	a0,fa5
     35c:	00008067          	ret

0000000000000360 :
     360:	00008067          	ret

0000000000000364 :
     364:	00058513          	mv	a0,a1
     368:	00008067          	ret

000000000000036c :
     36c:	00060513          	mv	a0,a2
     370:	00008067          	ret

0000000000000374 :
     374:	00080513          	mv	a0,a6
     378:	00008067          	ret

000000000000037c :
     37c:	00068513          	mv	a0,a3
     380:	00008067          	ret

0000000000000384 :
     384:	00072503          	lw	a0,0(a4)
     388:	00008067          	ret

000000000000038c :
     38c:	00472503          	lw	a0,4(a4)
     390:	00008067          	ret

0000000000000394 :
     394:	00872503          	lw	a0,8(a4)
     398:	00008067          	ret

000000000000039c :
     39c:	0007a503          	lw	a0,0(a5)
     3a0:	00008067          	ret

00000000000003a4 :
     3a4:	0047a503          	lw	a0,4(a5)
     3a8:	00008067          	ret

00000000000003ac :
     3ac:	0087a503          	lw	a0,8(a5)
     3b0:	00008067          	ret

00000000000003b4 :
     3b4:	0008a503          	lw	a0,0(a7)
     3b8:	00008067          	ret

00000000000003bc :
     3bc:	0048a503          	lw	a0,4(a7)
     3c0:	00008067          	ret

00000000000003c4 :
     3c4:	00012503          	lw	a0,0(sp)
     3c8:	00052503          	lw	a0,0(a0) # 3f000000 <_sstack+0x3ed122d4>
     3cc:	00008067          	ret

00000000000003d0 :
     3d0:	00012503          	lw	a0,0(sp)
     3d4:	00452503          	lw	a0,4(a0)
     3d8:	00008067          	ret

00000000000003dc :
     3dc:	00012503          	lw	a0,0(sp)
     3e0:	00852503          	lw	a0,8(a0)
     3e4:	00008067          	ret

00000000000003e8 :
     3e8:	00412503          	lw	a0,4(sp)
     3ec:	00052503          	lw	a0,0(a0)
     3f0:	00008067          	ret

00000000000003f4 :
     3f4:	00412503          	lw	a0,4(sp)
     3f8:	00452503          	lw	a0,4(a0)
     3fc:	00008067          	ret

0000000000000400 :
     400:	00412503          	lw	a0,4(sp)
     404:	00852503          	lw	a0,8(a0)
     408:	00008067          	ret

000000000000040c :
     40c:	ff010113          	addi	sp,sp,-16
     410:	00112623          	sw	ra,12(sp)
     414:	00812423          	sw	s0,8(sp)
     418:	00912223          	sw	s1,4(sp)
     41c:	00050413          	mv	s0,a0
     420:	00052787          	flw	fa5,0(a0)
     424:	00452707          	flw	fa4,4(a0)
     428:	00058493          	mv	s1,a1
     42c:	00852687          	flw	fa3,8(a0)
     430:	10f7f7d3          	fmul.s	fa5,fa5,fa5
     434:	10e77753          	fmul.s	fa4,fa4,fa4
     438:	00e7f7d3          	fadd.s	fa5,fa5,fa4
     43c:	10d6f753          	fmul.s	fa4,fa3,fa3
     440:	00e7f7d3          	fadd.s	fa5,fa5,fa4
     444:	e0078553          	fmv.x.w	a0,fa5
     448:	129030ef          	jal	ra,3d70 
     44c:	0014f493          	andi	s1,s1,1
     450:	f00507d3          	fmv.w.x	fa5,a0
     454:	00048463          	beqz	s1,45c 
     458:	20f797d3          	fneg.s	fa5,fa5
     45c:	00042707          	flw	fa4,0(s0)
     460:	00442687          	flw	fa3,4(s0)
     464:	18f77753          	fdiv.s	fa4,fa4,fa5
     468:	00842607          	flw	fa2,8(s0)
     46c:	00e42027          	fsw	fa4,0(s0)
     470:	18f6f753          	fdiv.s	fa4,fa3,fa5
     474:	00e42227          	fsw	fa4,4(s0)
     478:	18f677d3          	fdiv.s	fa5,fa2,fa5
     47c:	00f42427          	fsw	fa5,8(s0)
     480:	00c12083          	lw	ra,12(sp)
     484:	00812403          	lw	s0,8(sp)
     488:	00412483          	lw	s1,4(sp)
     48c:	01010113          	addi	sp,sp,16
     490:	00008067          	ret

0000000000000494 :
     494:	f00507d3          	fmv.w.x	fa5,a0
     498:	f0000753          	fmv.w.x	fa4,zero
     49c:	a0f71553          	flt.s	a0,fa4,fa5
     4a0:	00051663          	bnez	a0,4ac 
     4a4:	bf800537          	lui	a0,0xbf800
     4a8:	0080006f          	j	4b0 
     4ac:	3f800537          	lui	a0,0x3f800
     4b0:	f00507d3          	fmv.w.x	fa5,a0
     4b4:	e0078553          	fmv.x.w	a0,fa5
     4b8:	00008067          	ret

00000000000004bc :
     4bc:	002ec5b7          	lui	a1,0x2ec
     4c0:	79c5a787          	flw	fa5,1948(a1) # 2ec79c 
     4c4:	f0050753          	fmv.w.x	fa4,a0
     4c8:	10f777d3          	fmul.s	fa5,fa4,fa5
     4cc:	e0078553          	fmv.x.w	a0,fa5
     4d0:	00008067          	ret

00000000000004d4 :
     4d4:	fe010113          	addi	sp,sp,-32
     4d8:	00112e23          	sw	ra,28(sp)
     4dc:	00812c23          	sw	s0,24(sp)
     4e0:	00912a23          	sw	s1,20(sp)
     4e4:	01212823          	sw	s2,16(sp)
     4e8:	01312623          	sw	s3,12(sp)
     4ec:	01412423          	sw	s4,8(sp)
     4f0:	560030ef          	jal	ra,3a50 
     4f4:	000105b7          	lui	a1,0x10
     4f8:	0185a483          	lw	s1,24(a1) # 10018 
     4fc:	00a4a023          	sw	a0,0(s1)
     500:	550030ef          	jal	ra,3a50 
     504:	00a4a223          	sw	a0,4(s1)
     508:	548030ef          	jal	ra,3a50 
     50c:	00a4a423          	sw	a0,8(s1)
     510:	540030ef          	jal	ra,3a50 
     514:	002ec5b7          	lui	a1,0x2ec
     518:	7a05a707          	flw	fa4,1952(a1) # 2ec7a0 
     51c:	00e12227          	fsw	fa4,4(sp)
     520:	f00507d3          	fmv.w.x	fa5,a0
     524:	10e7f7d3          	fmul.s	fa5,fa5,fa4
     528:	e0078453          	fmv.x.w	s0,fa5
     52c:	00040513          	mv	a0,s0
     530:	029030ef          	jal	ra,3d58 
     534:	000105b7          	lui	a1,0x10
     538:	0305a903          	lw	s2,48(a1) # 10030 
     53c:	00a92023          	sw	a0,0(s2)
     540:	00040513          	mv	a0,s0
     544:	628030ef          	jal	ra,3b6c 
     548:	000105b7          	lui	a1,0x10
     54c:	03c5a983          	lw	s3,60(a1) # 1003c 
     550:	00a9a023          	sw	a0,0(s3)
     554:	4fc030ef          	jal	ra,3a50 
     558:	f00507d3          	fmv.w.x	fa5,a0
     55c:	00412707          	flw	fa4,4(sp)
     560:	10e7f7d3          	fmul.s	fa5,fa5,fa4
     564:	e0078453          	fmv.x.w	s0,fa5
     568:	00040513          	mv	a0,s0
     56c:	7ec030ef          	jal	ra,3d58 
     570:	00a92223          	sw	a0,4(s2)
     574:	00040513          	mv	a0,s0
     578:	5f4030ef          	jal	ra,3b6c 
     57c:	00a9a223          	sw	a0,4(s3)
     580:	4d0030ef          	jal	ra,3a50 
     584:	4cc030ef          	jal	ra,3a50 
     588:	f00507d3          	fmv.w.x	fa5,a0
     58c:	00412707          	flw	fa4,4(sp)
     590:	10e7f7d3          	fmul.s	fa5,fa5,fa4
     594:	e0078453          	fmv.x.w	s0,fa5
     598:	00040513          	mv	a0,s0
     59c:	5d0030ef          	jal	ra,3b6c 
     5a0:	000105b7          	lui	a1,0x10
     5a4:	0245aa03          	lw	s4,36(a1) # 10024 
     5a8:	800005b7          	lui	a1,0x80000
     5ac:	00b54533          	xor	a0,a0,a1
     5b0:	00aa2223          	sw	a0,4(s4)
     5b4:	49c030ef          	jal	ra,3a50 
     5b8:	f00507d3          	fmv.w.x	fa5,a0
     5bc:	00412707          	flw	fa4,4(sp)
     5c0:	10e7f7d3          	fmul.s	fa5,fa5,fa4
     5c4:	00f12027          	fsw	fa5,0(sp)
     5c8:	00040513          	mv	a0,s0
     5cc:	78c030ef          	jal	ra,3d58 
     5d0:	f00507d3          	fmv.w.x	fa5,a0
     5d4:	00f12227          	fsw	fa5,4(sp)
     5d8:	00012787          	flw	fa5,0(sp)
     5dc:	e0078453          	fmv.x.w	s0,fa5
     5e0:	00040513          	mv	a0,s0
     5e4:	588030ef          	jal	ra,3b6c 
     5e8:	f00507d3          	fmv.w.x	fa5,a0
     5ec:	00412707          	flw	fa4,4(sp)
     5f0:	10f777d3          	fmul.s	fa5,fa4,fa5
     5f4:	00fa2027          	fsw	fa5,0(s4)
     5f8:	00040513          	mv	a0,s0
     5fc:	75c030ef          	jal	ra,3d58 
     600:	f00507d3          	fmv.w.x	fa5,a0
     604:	00412707          	flw	fa4,4(sp)
     608:	10f777d3          	fmul.s	fa5,fa4,fa5
     60c:	00fa2427          	fsw	fa5,8(s4)
     610:	440030ef          	jal	ra,3a50 
     614:	000105b7          	lui	a1,0x10
     618:	0445a583          	lw	a1,68(a1) # 10044 
     61c:	00a5a023          	sw	a0,0(a1)
     620:	00092787          	flw	fa5,0(s2)
     624:	0049a707          	flw	fa4,4(s3)
     628:	10e7f7d3          	fmul.s	fa5,fa5,fa4
     62c:	00010537          	lui	a0,0x10
     630:	01c52503          	lw	a0,28(a0) # 1001c 
     634:	c34805b7          	lui	a1,0xc3480
     638:	f0058753          	fmv.w.x	fa4,a1
     63c:	10e7f7d3          	fmul.s	fa5,fa5,fa4
     640:	00f52027          	fsw	fa5,0(a0)
     644:	0009a687          	flw	fa3,0(s3)
     648:	434805b7          	lui	a1,0x43480
     64c:	f0058653          	fmv.w.x	fa2,a1
     650:	10c6f6d3          	fmul.s	fa3,fa3,fa2
     654:	00d52227          	fsw	fa3,4(a0)
     658:	00092687          	flw	fa3,0(s2)
     65c:	00492607          	flw	fa2,4(s2)
     660:	10c6f6d3          	fmul.s	fa3,fa3,fa2
     664:	10e6f753          	fmul.s	fa4,fa3,fa4
     668:	00e52427          	fsw	fa4,8(a0)
     66c:	0004a707          	flw	fa4,0(s1)
     670:	000105b7          	lui	a1,0x10
     674:	0205a583          	lw	a1,32(a1) # 10020 
     678:	00e7f7d3          	fadd.s	fa5,fa5,fa4
     67c:	00f5a027          	fsw	fa5,0(a1)
     680:	00452787          	flw	fa5,4(a0)
     684:	0044a707          	flw	fa4,4(s1)
     688:	00e7f7d3          	fadd.s	fa5,fa5,fa4
     68c:	00f5a227          	fsw	fa5,4(a1)
     690:	00852787          	flw	fa5,8(a0)
     694:	0084a707          	flw	fa4,8(s1)
     698:	00e7f7d3          	fadd.s	fa5,fa5,fa4
     69c:	00f5a427          	fsw	fa5,8(a1)
     6a0:	01c12083          	lw	ra,28(sp)
     6a4:	01812403          	lw	s0,24(sp)
     6a8:	01412483          	lw	s1,20(sp)
     6ac:	01012903          	lw	s2,16(sp)
     6b0:	00c12983          	lw	s3,12(sp)
     6b4:	00812a03          	lw	s4,8(sp)
     6b8:	02010113          	addi	sp,sp,32
     6bc:	00008067          	ret

00000000000006c0 :
     6c0:	fb010113          	addi	sp,sp,-80
     6c4:	04112623          	sw	ra,76(sp)
     6c8:	04812423          	sw	s0,72(sp)
     6cc:	04912223          	sw	s1,68(sp)
     6d0:	05212023          	sw	s2,64(sp)
     6d4:	03312e23          	sw	s3,60(sp)
     6d8:	03412c23          	sw	s4,56(sp)
     6dc:	03512a23          	sw	s5,52(sp)
     6e0:	03612823          	sw	s6,48(sp)
     6e4:	03712623          	sw	s7,44(sp)
     6e8:	03812423          	sw	s8,40(sp)
     6ec:	03912223          	sw	s9,36(sp)
     6f0:	03a12023          	sw	s10,32(sp)
     6f4:	01b12e23          	sw	s11,28(sp)
     6f8:	05010413          	addi	s0,sp,80
     6fc:	00050a93          	mv	s5,a0
     700:	21c030ef          	jal	ra,391c 
     704:	fff00593          	li	a1,-1
     708:	1cb50663          	beq	a0,a1,8d4 <__stack_size+0xd4>
     70c:	00050b13          	mv	s6,a0
     710:	20c030ef          	jal	ra,391c 
     714:	00050a13          	mv	s4,a0
     718:	204030ef          	jal	ra,391c 
     71c:	fca42223          	sw	a0,-60(s0)
     720:	1fc030ef          	jal	ra,391c 
     724:	00050993          	mv	s3,a0
     728:	00300513          	li	a0,3
     72c:	00000593          	li	a1,0
     730:	2d0030ef          	jal	ra,3a00 
     734:	00050493          	mv	s1,a0
     738:	318030ef          	jal	ra,3a50 
     73c:	00a4a023          	sw	a0,0(s1)
     740:	310030ef          	jal	ra,3a50 
     744:	00a4a223          	sw	a0,4(s1)
     748:	308030ef          	jal	ra,3a50 
     74c:	00a4a423          	sw	a0,8(s1)
     750:	00300513          	li	a0,3
     754:	00000593          	li	a1,0
     758:	2a8030ef          	jal	ra,3a00 
     75c:	00050c13          	mv	s8,a0
     760:	2f0030ef          	jal	ra,3a50 
     764:	00ac2023          	sw	a0,0(s8)
     768:	2e8030ef          	jal	ra,3a50 
     76c:	00ac2223          	sw	a0,4(s8)
     770:	2e0030ef          	jal	ra,3a50 
     774:	00ac2423          	sw	a0,8(s8)
     778:	2d8030ef          	jal	ra,3a50 
     77c:	f00507d3          	fmv.w.x	fa5,a0
     780:	fcf42027          	fsw	fa5,-64(s0)
     784:	f00007d3          	fmv.w.x	fa5,zero
     788:	fcf42427          	fsw	fa5,-56(s0)
     78c:	00200513          	li	a0,2
     790:	00200b93          	li	s7,2
     794:	00000593          	li	a1,0
     798:	268030ef          	jal	ra,3a00 
     79c:	00050c93          	mv	s9,a0
     7a0:	2b0030ef          	jal	ra,3a50 
     7a4:	00aca023          	sw	a0,0(s9)
     7a8:	2a8030ef          	jal	ra,3a50 
     7ac:	00aca223          	sw	a0,4(s9)
     7b0:	00300513          	li	a0,3
     7b4:	00000593          	li	a1,0
     7b8:	248030ef          	jal	ra,3a00 
     7bc:	00050d13          	mv	s10,a0
     7c0:	290030ef          	jal	ra,3a50 
     7c4:	00ad2023          	sw	a0,0(s10)
     7c8:	288030ef          	jal	ra,3a50 
     7cc:	00ad2223          	sw	a0,4(s10)
     7d0:	280030ef          	jal	ra,3a50 
     7d4:	00ad2423          	sw	a0,8(s10)
     7d8:	00300513          	li	a0,3
     7dc:	00000593          	li	a1,0
     7e0:	220030ef          	jal	ra,3a00 
     7e4:	00050913          	mv	s2,a0
     7e8:	04098463          	beqz	s3,830 <__stack_size+0x30>
     7ec:	264030ef          	jal	ra,3a50 
     7f0:	002ec5b7          	lui	a1,0x2ec
     7f4:	7a45a707          	flw	fa4,1956(a1) # 2ec7a4 
     7f8:	fae42e27          	fsw	fa4,-68(s0)
     7fc:	f00507d3          	fmv.w.x	fa5,a0
     800:	10e7f7d3          	fmul.s	fa5,fa5,fa4
     804:	00f92027          	fsw	fa5,0(s2)
     808:	248030ef          	jal	ra,3a50 
     80c:	f00507d3          	fmv.w.x	fa5,a0
     810:	fbc42707          	flw	fa4,-68(s0)
     814:	10e7f7d3          	fmul.s	fa5,fa5,fa4
     818:	00f92227          	fsw	fa5,4(s2)
     81c:	234030ef          	jal	ra,3a50 
     820:	f00507d3          	fmv.w.x	fa5,a0
     824:	fbc42707          	flw	fa4,-68(s0)
     828:	10e7f7d3          	fmul.s	fa5,fa5,fa4
     82c:	00f92427          	fsw	fa5,8(s2)
     830:	fc842787          	flw	fa5,-56(s0)
     834:	fc042707          	flw	fa4,-64(s0)
     838:	a0f71dd3          	flt.s	s11,fa4,fa5
     83c:	000d8513          	mv	a0,s11
     840:	017a1463          	bne	s4,s7,848 <__stack_size+0x48>
     844:	00100513          	li	a0,1
     848:	00010593          	mv	a1,sp
     84c:	fd058b93          	addi	s7,a1,-48
     850:	000b8113          	mv	sp,s7
     854:	fd65a823          	sw	s6,-48(a1)
     858:	fd45aa23          	sw	s4,-44(a1)
     85c:	fc442603          	lw	a2,-60(s0)
     860:	fcc5ac23          	sw	a2,-40(a1)
     864:	fd35ae23          	sw	s3,-36(a1)
     868:	fe95a023          	sw	s1,-32(a1)
     86c:	ff85a223          	sw	s8,-28(a1)
     870:	fea58423          	sb	a0,-24(a1)
     874:	00010537          	lui	a0,0x10
     878:	00052b03          	lw	s6,0(a0) # 10000 
     87c:	ff95a623          	sw	s9,-20(a1)
     880:	ffa5a823          	sw	s10,-16(a1)
     884:	ff25aa23          	sw	s2,-12(a1)
     888:	02800593          	li	a1,40
     88c:	000a8513          	mv	a0,s5
     890:	921ff0ef          	jal	ra,1b0 <__mulsi3>
     894:	00ab0533          	add	a0,s6,a0
     898:	02800613          	li	a2,40
     89c:	000b8593          	mv	a1,s7
     8a0:	88dff0ef          	jal	ra,12c 
     8a4:	00300513          	li	a0,3
     8a8:	02aa1a63          	bne	s4,a0,8dc <__stack_size+0xdc>
     8ac:	0004a787          	flw	fa5,0(s1)
     8b0:	fc842687          	flw	fa3,-56(s0)
     8b4:	a0d7a553          	feq.s	a0,fa5,fa3
     8b8:	20d68753          	fmv.s	fa4,fa3
     8bc:	0a051063          	bnez	a0,95c <__stack_size+0x15c>
     8c0:	f0000753          	fmv.w.x	fa4,zero
     8c4:	a0f71553          	flt.s	a0,fa4,fa5
     8c8:	08051263          	bnez	a0,94c <__stack_size+0x14c>
     8cc:	bf800537          	lui	a0,0xbf800
     8d0:	0800006f          	j	950 <__stack_size+0x150>
     8d4:	00000a13          	li	s4,0
     8d8:	3240006f          	j	bfc <__stack_size+0x3fc>
     8dc:	00200513          	li	a0,2
     8e0:	0eaa1663          	bne	s4,a0,9cc <__stack_size+0x1cc>
     8e4:	000d8513          	mv	a0,s11
     8e8:	6e9020ef          	jal	ra,37d0 
     8ec:	0004a787          	flw	fa5,0(s1)
     8f0:	0044a707          	flw	fa4,4(s1)
     8f4:	00050a13          	mv	s4,a0
     8f8:	0084a687          	flw	fa3,8(s1)
     8fc:	10f7f7d3          	fmul.s	fa5,fa5,fa5
     900:	10e77753          	fmul.s	fa4,fa4,fa4
     904:	00e7f7d3          	fadd.s	fa5,fa5,fa4
     908:	10d6f753          	fmul.s	fa4,fa3,fa3
     90c:	00e7f7d3          	fadd.s	fa5,fa5,fa4
     910:	e0078553          	fmv.x.w	a0,fa5
     914:	45c030ef          	jal	ra,3d70 
     918:	001a7593          	andi	a1,s4,1
     91c:	f00507d3          	fmv.w.x	fa5,a0
     920:	00058463          	beqz	a1,928 <__stack_size+0x128>
     924:	20f797d3          	fneg.s	fa5,fa5
     928:	0004a707          	flw	fa4,0(s1)
     92c:	0044a687          	flw	fa3,4(s1)
     930:	18f77753          	fdiv.s	fa4,fa4,fa5
     934:	0084a607          	flw	fa2,8(s1)
     938:	00e4a027          	fsw	fa4,0(s1)
     93c:	18f6f753          	fdiv.s	fa4,fa3,fa5
     940:	00e4a227          	fsw	fa4,4(s1)
     944:	18f676d3          	fdiv.s	fa3,fa2,fa5
     948:	0800006f          	j	9c8 <__stack_size+0x1c8>
     94c:	3f800537          	lui	a0,0x3f800
     950:	f0050753          	fmv.w.x	fa4,a0
     954:	10f7f7d3          	fmul.s	fa5,fa5,fa5
     958:	18f77753          	fdiv.s	fa4,fa4,fa5
     95c:	0044a787          	flw	fa5,4(s1)
     960:	a0d7a553          	feq.s	a0,fa5,fa3
     964:	00e4a027          	fsw	fa4,0(s1)
     968:	20d68753          	fmv.s	fa4,fa3
     96c:	02051463          	bnez	a0,994 <__stack_size+0x194>
     970:	f0000753          	fmv.w.x	fa4,zero
     974:	a0f71553          	flt.s	a0,fa4,fa5
     978:	00051663          	bnez	a0,984 <__stack_size+0x184>
     97c:	bf800537          	lui	a0,0xbf800
     980:	0080006f          	j	988 <__stack_size+0x188>
     984:	3f800537          	lui	a0,0x3f800
     988:	f0050753          	fmv.w.x	fa4,a0
     98c:	10f7f7d3          	fmul.s	fa5,fa5,fa5
     990:	18f77753          	fdiv.s	fa4,fa4,fa5
     994:	0084a787          	flw	fa5,8(s1)
     998:	a0d7a553          	feq.s	a0,fa5,fa3
     99c:	00e4a227          	fsw	fa4,4(s1)
     9a0:	02051463          	bnez	a0,9c8 <__stack_size+0x1c8>
     9a4:	f0000753          	fmv.w.x	fa4,zero
     9a8:	a0f71553          	flt.s	a0,fa4,fa5
     9ac:	00051663          	bnez	a0,9b8 <__stack_size+0x1b8>
     9b0:	bf800537          	lui	a0,0xbf800
     9b4:	0080006f          	j	9bc <__stack_size+0x1bc>
     9b8:	3f800537          	lui	a0,0x3f800
     9bc:	f0050753          	fmv.w.x	fa4,a0
     9c0:	10f7f7d3          	fmul.s	fa5,fa5,fa5
     9c4:	18f776d3          	fdiv.s	fa3,fa4,fa5
     9c8:	00d4a427          	fsw	fa3,8(s1)
     9cc:	00100a13          	li	s4,1
     9d0:	22098663          	beqz	s3,bfc <__stack_size+0x3fc>
     9d4:	00092503          	lw	a0,0(s2)
     9d8:	380030ef          	jal	ra,3d58 
     9dc:	000105b7          	lui	a1,0x10
     9e0:	04c5a983          	lw	s3,76(a1) # 1004c 
     9e4:	02a9a423          	sw	a0,40(s3)
     9e8:	00092503          	lw	a0,0(s2)
     9ec:	180030ef          	jal	ra,3b6c 
     9f0:	02a9a623          	sw	a0,44(s3)
     9f4:	00492503          	lw	a0,4(s2)
     9f8:	360030ef          	jal	ra,3d58 
     9fc:	02a9a823          	sw	a0,48(s3)
     a00:	00492503          	lw	a0,4(s2)
     a04:	168030ef          	jal	ra,3b6c 
     a08:	02a9aa23          	sw	a0,52(s3)
     a0c:	00892503          	lw	a0,8(s2)
     a10:	348030ef          	jal	ra,3d58 
     a14:	02a9ac23          	sw	a0,56(s3)
     a18:	00892503          	lw	a0,8(s2)
     a1c:	150030ef          	jal	ra,3b6c 
     a20:	f00507d3          	fmv.w.x	fa5,a0
     a24:	0309a707          	flw	fa4,48(s3)
     a28:	0389a687          	flw	fa3,56(s3)
     a2c:	02a9ae23          	sw	a0,60(s3)
     a30:	02c9a607          	flw	fa2,44(s3)
     a34:	0349a587          	flw	fa1,52(s3)
     a38:	10d77553          	fmul.s	fa0,fa4,fa3
     a3c:	0289a007          	flw	ft0,40(s3)
     a40:	00a9a027          	fsw	fa0,0(s3)
     a44:	10b670d3          	fmul.s	ft1,fa2,fa1
     a48:	1016f153          	fmul.s	ft2,fa3,ft1
     a4c:	1007f1d3          	fmul.s	ft3,fa5,ft0
     a50:	08317153          	fsub.s	ft2,ft2,ft3
     a54:	0029a227          	fsw	ft2,4(s3)
     a58:	1005f153          	fmul.s	ft2,fa1,ft0
     a5c:	1026f1d3          	fmul.s	ft3,fa3,ft2
     a60:	10c7f253          	fmul.s	ft4,fa5,fa2
     a64:	003271d3          	fadd.s	ft3,ft4,ft3
     a68:	0039a427          	fsw	ft3,8(s3)
     a6c:	10e7f1d3          	fmul.s	ft3,fa5,fa4
     a70:	0039a627          	fsw	ft3,12(s3)
     a74:	1017f0d3          	fmul.s	ft1,fa5,ft1
     a78:	1006f253          	fmul.s	ft4,fa3,ft0
     a7c:	0040f0d3          	fadd.s	ft1,ft1,ft4
     a80:	0019a827          	fsw	ft1,16(s3)
     a84:	1027f7d3          	fmul.s	fa5,fa5,ft2
     a88:	10c6f6d3          	fmul.s	fa3,fa3,fa2
     a8c:	08d7f7d3          	fsub.s	fa5,fa5,fa3
     a90:	00f9aa27          	fsw	fa5,20(s3)
     a94:	20b597d3          	fneg.s	fa5,fa1
     a98:	00f9ac27          	fsw	fa5,24(s3)
     a9c:	10c777d3          	fmul.s	fa5,fa4,fa2
     aa0:	00f9ae27          	fsw	fa5,28(s3)
     aa4:	100777d3          	fmul.s	fa5,fa4,ft0
     aa8:	02f9a027          	fsw	fa5,32(s3)
     aac:	0004a687          	flw	fa3,0(s1)
     ab0:	0044a707          	flw	fa4,4(s1)
     ab4:	0084a787          	flw	fa5,8(s1)
     ab8:	10a57653          	fmul.s	fa2,fa0,fa0
     abc:	10d67653          	fmul.s	fa2,fa2,fa3
     ac0:	1031f553          	fmul.s	fa0,ft3,ft3
     ac4:	10e57553          	fmul.s	fa0,fa0,fa4
     ac8:	00a67653          	fadd.s	fa2,fa2,fa0
     acc:	10b5f5d3          	fmul.s	fa1,fa1,fa1
     ad0:	10f5f5d3          	fmul.s	fa1,fa1,fa5
     ad4:	00b67653          	fadd.s	fa2,fa2,fa1
     ad8:	00c4a027          	fsw	fa2,0(s1)
     adc:	0049a607          	flw	fa2,4(s3)
     ae0:	0109a587          	flw	fa1,16(s3)
     ae4:	10c67653          	fmul.s	fa2,fa2,fa2
     ae8:	10c6f653          	fmul.s	fa2,fa3,fa2
     aec:	01c9a507          	flw	fa0,28(s3)
     af0:	10b5f5d3          	fmul.s	fa1,fa1,fa1
     af4:	10b775d3          	fmul.s	fa1,fa4,fa1
     af8:	00b67653          	fadd.s	fa2,fa2,fa1
     afc:	10a575d3          	fmul.s	fa1,fa0,fa0
     b00:	10b7f5d3          	fmul.s	fa1,fa5,fa1
     b04:	00b67653          	fadd.s	fa2,fa2,fa1
     b08:	00c4a227          	fsw	fa2,4(s1)
     b0c:	0089a607          	flw	fa2,8(s3)
     b10:	0149a587          	flw	fa1,20(s3)
     b14:	10c67653          	fmul.s	fa2,fa2,fa2
     b18:	10c6f653          	fmul.s	fa2,fa3,fa2
     b1c:	0209a507          	flw	fa0,32(s3)
     b20:	10b5f5d3          	fmul.s	fa1,fa1,fa1
     b24:	10b775d3          	fmul.s	fa1,fa4,fa1
     b28:	00b67653          	fadd.s	fa2,fa2,fa1
     b2c:	10a575d3          	fmul.s	fa1,fa0,fa0
     b30:	10b7f5d3          	fmul.s	fa1,fa5,fa1
     b34:	00b67653          	fadd.s	fa2,fa2,fa1
     b38:	00c4a427          	fsw	fa2,8(s1)
     b3c:	0049a607          	flw	fa2,4(s3)
     b40:	0089a587          	flw	fa1,8(s3)
     b44:	0109a507          	flw	fa0,16(s3)
     b48:	10c6f653          	fmul.s	fa2,fa3,fa2
     b4c:	10b67653          	fmul.s	fa2,fa2,fa1
     b50:	0149a587          	flw	fa1,20(s3)
     b54:	10a77553          	fmul.s	fa0,fa4,fa0
     b58:	01c9a007          	flw	ft0,28(s3)
     b5c:	0209a087          	flw	ft1,32(s3)
     b60:	10b575d3          	fmul.s	fa1,fa0,fa1
     b64:	00b67653          	fadd.s	fa2,fa2,fa1
     b68:	1007f5d3          	fmul.s	fa1,fa5,ft0
     b6c:	1015f5d3          	fmul.s	fa1,fa1,ft1
     b70:	00b67653          	fadd.s	fa2,fa2,fa1
     b74:	00c67653          	fadd.s	fa2,fa2,fa2
     b78:	00c92027          	fsw	fa2,0(s2)
     b7c:	0009a607          	flw	fa2,0(s3)
     b80:	0089a587          	flw	fa1,8(s3)
     b84:	00c9a507          	flw	fa0,12(s3)
     b88:	10c6f653          	fmul.s	fa2,fa3,fa2
     b8c:	10b67653          	fmul.s	fa2,fa2,fa1
     b90:	0149a587          	flw	fa1,20(s3)
     b94:	10a77553          	fmul.s	fa0,fa4,fa0
     b98:	0189a007          	flw	ft0,24(s3)
     b9c:	0209a087          	flw	ft1,32(s3)
     ba0:	10b575d3          	fmul.s	fa1,fa0,fa1
     ba4:	00b67653          	fadd.s	fa2,fa2,fa1
     ba8:	1007f5d3          	fmul.s	fa1,fa5,ft0
     bac:	1015f5d3          	fmul.s	fa1,fa1,ft1
     bb0:	00b67653          	fadd.s	fa2,fa2,fa1
     bb4:	00c67653          	fadd.s	fa2,fa2,fa2
     bb8:	00c92227          	fsw	fa2,4(s2)
     bbc:	0009a607          	flw	fa2,0(s3)
     bc0:	0049a587          	flw	fa1,4(s3)
     bc4:	00c9a507          	flw	fa0,12(s3)
     bc8:	10c6f6d3          	fmul.s	fa3,fa3,fa2
     bcc:	10b6f6d3          	fmul.s	fa3,fa3,fa1
     bd0:	0109a607          	flw	fa2,16(s3)
     bd4:	10a77753          	fmul.s	fa4,fa4,fa0
     bd8:	0189a587          	flw	fa1,24(s3)
     bdc:	01c9a507          	flw	fa0,28(s3)
     be0:	10c77753          	fmul.s	fa4,fa4,fa2
     be4:	00e6f753          	fadd.s	fa4,fa3,fa4
     be8:	10b7f7d3          	fmul.s	fa5,fa5,fa1
     bec:	10a7f7d3          	fmul.s	fa5,fa5,fa0
     bf0:	00f777d3          	fadd.s	fa5,fa4,fa5
     bf4:	00f7f7d3          	fadd.s	fa5,fa5,fa5
     bf8:	00f92427          	fsw	fa5,8(s2)
     bfc:	000a0513          	mv	a0,s4
     c00:	fb040113          	addi	sp,s0,-80
     c04:	04c12083          	lw	ra,76(sp)
     c08:	04812403          	lw	s0,72(sp)
     c0c:	04412483          	lw	s1,68(sp)
     c10:	04012903          	lw	s2,64(sp)
     c14:	03c12983          	lw	s3,60(sp)
     c18:	03812a03          	lw	s4,56(sp)
     c1c:	03412a83          	lw	s5,52(sp)
     c20:	03012b03          	lw	s6,48(sp)
     c24:	02c12b83          	lw	s7,44(sp)
     c28:	02812c03          	lw	s8,40(sp)
     c2c:	02412c83          	lw	s9,36(sp)
     c30:	02012d03          	lw	s10,32(sp)
     c34:	01c12d83          	lw	s11,28(sp)
     c38:	05010113          	addi	sp,sp,80
     c3c:	00008067          	ret

0000000000000c40 :
     c40:	ff010113          	addi	sp,sp,-16
     c44:	00112623          	sw	ra,12(sp)
     c48:	00812423          	sw	s0,8(sp)
     c4c:	00912223          	sw	s1,4(sp)
     c50:	03c00493          	li	s1,60
     c54:	00a4ce63          	blt	s1,a0,c70 
     c58:	00050413          	mv	s0,a0
     c5c:	a65ff0ef          	jal	ra,6c0 
     c60:	0ff57513          	andi	a0,a0,255
     c64:	00050663          	beqz	a0,c70 
     c68:	00140513          	addi	a0,s0,1
     c6c:	fe9416e3          	bne	s0,s1,c58 
     c70:	00c12083          	lw	ra,12(sp)
     c74:	00812403          	lw	s0,8(sp)
     c78:	00412483          	lw	s1,4(sp)
     c7c:	01010113          	addi	sp,sp,16
     c80:	00008067          	ret

0000000000000c84 :
     c84:	ff010113          	addi	sp,sp,-16
     c88:	00112623          	sw	ra,12(sp)
     c8c:	00812423          	sw	s0,8(sp)
     c90:	00912223          	sw	s1,4(sp)
     c94:	00000513          	li	a0,0
     c98:	03c00493          	li	s1,60
     c9c:	00050413          	mv	s0,a0
     ca0:	a21ff0ef          	jal	ra,6c0 
     ca4:	0ff57513          	andi	a0,a0,255
     ca8:	00050663          	beqz	a0,cb4 
     cac:	00140513          	addi	a0,s0,1
     cb0:	fe9416e3          	bne	s0,s1,c9c 
     cb4:	00c12083          	lw	ra,12(sp)
     cb8:	00812403          	lw	s0,8(sp)
     cbc:	00412483          	lw	s1,4(sp)
     cc0:	01010113          	addi	sp,sp,16
     cc4:	00008067          	ret

0000000000000cc8 :
     cc8:	ff010113          	addi	sp,sp,-16
     ccc:	00112623          	sw	ra,12(sp)
     cd0:	00812423          	sw	s0,8(sp)
     cd4:	00912223          	sw	s1,4(sp)
     cd8:	00050413          	mv	s0,a0
     cdc:	441020ef          	jal	ra,391c 
     ce0:	00050493          	mv	s1,a0
     ce4:	fff00593          	li	a1,-1
     ce8:	00140513          	addi	a0,s0,1
     cec:	02b48463          	beq	s1,a1,d14 
     cf0:	fd9ff0ef          	jal	ra,cc8 
     cf4:	00241413          	slli	s0,s0,0x2
     cf8:	00850433          	add	s0,a0,s0
     cfc:	00942023          	sw	s1,0(s0)
     d00:	00c12083          	lw	ra,12(sp)
     d04:	00812403          	lw	s0,8(sp)
     d08:	00412483          	lw	s1,4(sp)
     d0c:	01010113          	addi	sp,sp,16
     d10:	00008067          	ret
     d14:	fff00593          	li	a1,-1
     d18:	00c12083          	lw	ra,12(sp)
     d1c:	00812403          	lw	s0,8(sp)
     d20:	00412483          	lw	s1,4(sp)
     d24:	01010113          	addi	sp,sp,16
     d28:	48d0206f          	j	39b4 

0000000000000d2c :
     d2c:	ff010113          	addi	sp,sp,-16
     d30:	00112623          	sw	ra,12(sp)
     d34:	00812423          	sw	s0,8(sp)
     d38:	00912223          	sw	s1,4(sp)
     d3c:	00050413          	mv	s0,a0
     d40:	00000513          	li	a0,0
     d44:	f85ff0ef          	jal	ra,cc8 
     d48:	00050493          	mv	s1,a0
     d4c:	00052583          	lw	a1,0(a0) # 3f800000 <_sstack+0x3f5122d4>
     d50:	fff00613          	li	a2,-1
     d54:	00140513          	addi	a0,s0,1
     d58:	02c58463          	beq	a1,a2,d80 
     d5c:	fd1ff0ef          	jal	ra,d2c 
     d60:	00241413          	slli	s0,s0,0x2
     d64:	00850433          	add	s0,a0,s0
     d68:	00942023          	sw	s1,0(s0)
     d6c:	00c12083          	lw	ra,12(sp)
     d70:	00812403          	lw	s0,8(sp)
     d74:	00412483          	lw	s1,4(sp)
     d78:	01010113          	addi	sp,sp,16
     d7c:	00008067          	ret
     d80:	00048593          	mv	a1,s1
     d84:	00c12083          	lw	ra,12(sp)
     d88:	00812403          	lw	s0,8(sp)
     d8c:	00412483          	lw	s1,4(sp)
     d90:	01010113          	addi	sp,sp,16
     d94:	3d50206f          	j	3968 

0000000000000d98 :
     d98:	ff010113          	addi	sp,sp,-16
     d9c:	00112623          	sw	ra,12(sp)
     da0:	00812423          	sw	s0,8(sp)
     da4:	00912223          	sw	s1,4(sp)
     da8:	00050413          	mv	s0,a0
     dac:	00000513          	li	a0,0
     db0:	f19ff0ef          	jal	ra,cc8 
     db4:	00052583          	lw	a1,0(a0)
     db8:	fff00493          	li	s1,-1
     dbc:	02958663          	beq	a1,s1,de8 
     dc0:	000105b7          	lui	a1,0x10
     dc4:	0505a583          	lw	a1,80(a1) # 10050 
     dc8:	00241413          	slli	s0,s0,0x2
     dcc:	00858433          	add	s0,a1,s0
     dd0:	00a42023          	sw	a0,0(s0)
     dd4:	00000513          	li	a0,0
     dd8:	ef1ff0ef          	jal	ra,cc8 
     ddc:	00052583          	lw	a1,0(a0)
     de0:	00440413          	addi	s0,s0,4
     de4:	fe9596e3          	bne	a1,s1,dd0 
     de8:	00c12083          	lw	ra,12(sp)
     dec:	00812403          	lw	s0,8(sp)
     df0:	00412483          	lw	s1,4(sp)
     df4:	01010113          	addi	sp,sp,16
     df8:	00008067          	ret

0000000000000dfc :
     dfc:	ff010113          	addi	sp,sp,-16
     e00:	00112623          	sw	ra,12(sp)
     e04:	00812423          	sw	s0,8(sp)
     e08:	00912223          	sw	s1,4(sp)
     e0c:	ec8ff0ef          	jal	ra,4d4 
     e10:	00000513          	li	a0,0
     e14:	03c00493          	li	s1,60
     e18:	00050413          	mv	s0,a0
     e1c:	8a5ff0ef          	jal	ra,6c0 
     e20:	0ff57513          	andi	a0,a0,255
     e24:	00050663          	beqz	a0,e30 
     e28:	00140513          	addi	a0,s0,1
     e2c:	fe9416e3          	bne	s0,s1,e18 
     e30:	00000513          	li	a0,0
     e34:	e95ff0ef          	jal	ra,cc8 
     e38:	00052583          	lw	a1,0(a0)
     e3c:	fff00413          	li	s0,-1
     e40:	02858263          	beq	a1,s0,e64 
     e44:	000105b7          	lui	a1,0x10
     e48:	0505a483          	lw	s1,80(a1) # 10050 
     e4c:	00a4a023          	sw	a0,0(s1)
     e50:	00000513          	li	a0,0
     e54:	e75ff0ef          	jal	ra,cc8 
     e58:	00052583          	lw	a1,0(a0)
     e5c:	00448493          	addi	s1,s1,4
     e60:	fe8596e3          	bne	a1,s0,e4c 
     e64:	00000513          	li	a0,0
     e68:	ec5ff0ef          	jal	ra,d2c 
     e6c:	000105b7          	lui	a1,0x10
     e70:	0545a583          	lw	a1,84(a1) # 10054 
     e74:	00a5a023          	sw	a0,0(a1)
     e78:	00c12083          	lw	ra,12(sp)
     e7c:	00812403          	lw	s0,8(sp)
     e80:	00412483          	lw	s1,4(sp)
     e84:	01010113          	addi	sp,sp,16
     e88:	00008067          	ret

0000000000000e8c :
     e8c:	fe010113          	addi	sp,sp,-32
     e90:	00112e23          	sw	ra,28(sp)
     e94:	00812c23          	sw	s0,24(sp)
     e98:	00912a23          	sw	s1,20(sp)
     e9c:	01212823          	sw	s2,16(sp)
     ea0:	01312623          	sw	s3,12(sp)
     ea4:	02812903          	lw	s2,40(sp)
     ea8:	00092787          	flw	fa5,0(s2)
     eac:	f0000753          	fmv.w.x	fa4,zero
     eb0:	a0e7a553          	feq.s	a0,fa5,fa4
     eb4:	00080493          	mv	s1,a6
     eb8:	00070413          	mv	s0,a4
     ebc:	0a051263          	bnez	a0,f60 
     ec0:	0014f593          	andi	a1,s1,1
     ec4:	a0e79553          	flt.s	a0,fa5,fa4
     ec8:	00e12227          	fsw	fa4,4(sp)
     ecc:	00058463          	beqz	a1,ed4 
     ed0:	101020ef          	jal	ra,37d0 
     ed4:	00042787          	flw	fa5,0(s0)
     ed8:	00157513          	andi	a0,a0,1
     edc:	00051463          	bnez	a0,ee4 
     ee0:	20f797d3          	fneg.s	fa5,fa5
     ee4:	00010537          	lui	a0,0x10
     ee8:	09852983          	lw	s3,152(a0) # 10098 
     eec:	0009a707          	flw	fa4,0(s3)
     ef0:	00092687          	flw	fa3,0(s2)
     ef4:	00492607          	flw	fa2,4(s2)
     ef8:	0049a587          	flw	fa1,4(s3)
     efc:	08e7f7d3          	fsub.s	fa5,fa5,fa4
     f00:	18d7f7d3          	fdiv.s	fa5,fa5,fa3
     f04:	00f12427          	fsw	fa5,8(sp)
     f08:	10c7f7d3          	fmul.s	fa5,fa5,fa2
     f0c:	00b7f7d3          	fadd.s	fa5,fa5,fa1
     f10:	e0078553          	fmv.x.w	a0,fa5
     f14:	23d020ef          	jal	ra,3950 
     f18:	00442787          	flw	fa5,4(s0)
     f1c:	f0050753          	fmv.w.x	fa4,a0
     f20:	a0e78553          	fle.s	a0,fa5,fa4
     f24:	00412707          	flw	fa4,4(sp)
     f28:	02051c63          	bnez	a0,f60 
     f2c:	00892787          	flw	fa5,8(s2)
     f30:	0089a707          	flw	fa4,8(s3)
     f34:	00812687          	flw	fa3,8(sp)
     f38:	10f6f7d3          	fmul.s	fa5,fa3,fa5
     f3c:	00e7f7d3          	fadd.s	fa5,fa5,fa4
     f40:	e0078553          	fmv.x.w	a0,fa5
     f44:	20d020ef          	jal	ra,3950 
     f48:	00842787          	flw	fa5,8(s0)
     f4c:	f0050753          	fmv.w.x	fa4,a0
     f50:	a0f715d3          	flt.s	a1,fa4,fa5
     f54:	00412707          	flw	fa4,4(sp)
     f58:	00100513          	li	a0,1
     f5c:	14059863          	bnez	a1,10ac 
     f60:	00492787          	flw	fa5,4(s2)
     f64:	a0e7a553          	feq.s	a0,fa5,fa4
     f68:	0a051263          	bnez	a0,100c 
     f6c:	0014f593          	andi	a1,s1,1
     f70:	a0e79553          	flt.s	a0,fa5,fa4
     f74:	00e12227          	fsw	fa4,4(sp)
     f78:	00058463          	beqz	a1,f80 
     f7c:	055020ef          	jal	ra,37d0 
     f80:	00442787          	flw	fa5,4(s0)
     f84:	00157513          	andi	a0,a0,1
     f88:	00051463          	bnez	a0,f90 
     f8c:	20f797d3          	fneg.s	fa5,fa5
     f90:	00010537          	lui	a0,0x10
     f94:	09852983          	lw	s3,152(a0) # 10098 
     f98:	0049a707          	flw	fa4,4(s3)
     f9c:	00492687          	flw	fa3,4(s2)
     fa0:	00892607          	flw	fa2,8(s2)
     fa4:	0089a587          	flw	fa1,8(s3)
     fa8:	08e7f7d3          	fsub.s	fa5,fa5,fa4
     fac:	18d7f7d3          	fdiv.s	fa5,fa5,fa3
     fb0:	00f12427          	fsw	fa5,8(sp)
     fb4:	10c7f7d3          	fmul.s	fa5,fa5,fa2
     fb8:	00b7f7d3          	fadd.s	fa5,fa5,fa1
     fbc:	e0078553          	fmv.x.w	a0,fa5
     fc0:	191020ef          	jal	ra,3950 
     fc4:	00842787          	flw	fa5,8(s0)
     fc8:	f0050753          	fmv.w.x	fa4,a0
     fcc:	a0e78553          	fle.s	a0,fa5,fa4
     fd0:	00412707          	flw	fa4,4(sp)
     fd4:	02051c63          	bnez	a0,100c 
     fd8:	00092787          	flw	fa5,0(s2)
     fdc:	0009a707          	flw	fa4,0(s3)
     fe0:	00812687          	flw	fa3,8(sp)
     fe4:	10f6f7d3          	fmul.s	fa5,fa3,fa5
     fe8:	00e7f7d3          	fadd.s	fa5,fa5,fa4
     fec:	e0078553          	fmv.x.w	a0,fa5
     ff0:	161020ef          	jal	ra,3950 
     ff4:	00042787          	flw	fa5,0(s0)
     ff8:	f0050753          	fmv.w.x	fa4,a0
     ffc:	a0f715d3          	flt.s	a1,fa4,fa5
    1000:	00412707          	flw	fa4,4(sp)
    1004:	00200513          	li	a0,2
    1008:	0a059263          	bnez	a1,10ac 
    100c:	00892787          	flw	fa5,8(s2)
    1010:	a0e7a553          	feq.s	a0,fa5,fa4
    1014:	0a051663          	bnez	a0,10c0 
    1018:	0014f493          	andi	s1,s1,1
    101c:	a0e79553          	flt.s	a0,fa5,fa4
    1020:	00048463          	beqz	s1,1028 
    1024:	7ac020ef          	jal	ra,37d0 
    1028:	00842787          	flw	fa5,8(s0)
    102c:	00157513          	andi	a0,a0,1
    1030:	00051463          	bnez	a0,1038 
    1034:	20f797d3          	fneg.s	fa5,fa5
    1038:	00010537          	lui	a0,0x10
    103c:	09852483          	lw	s1,152(a0) # 10098 
    1040:	0084a707          	flw	fa4,8(s1)
    1044:	00892687          	flw	fa3,8(s2)
    1048:	00092607          	flw	fa2,0(s2)
    104c:	0004a587          	flw	fa1,0(s1)
    1050:	08e7f7d3          	fsub.s	fa5,fa5,fa4
    1054:	18d7f7d3          	fdiv.s	fa5,fa5,fa3
    1058:	00f12427          	fsw	fa5,8(sp)
    105c:	10c7f7d3          	fmul.s	fa5,fa5,fa2
    1060:	00b7f7d3          	fadd.s	fa5,fa5,fa1
    1064:	e0078553          	fmv.x.w	a0,fa5
    1068:	0e9020ef          	jal	ra,3950 
    106c:	00042787          	flw	fa5,0(s0)
    1070:	f0050753          	fmv.w.x	fa4,a0
    1074:	a0e78553          	fle.s	a0,fa5,fa4
    1078:	04051463          	bnez	a0,10c0 
    107c:	00492787          	flw	fa5,4(s2)
    1080:	0044a707          	flw	fa4,4(s1)
    1084:	00812687          	flw	fa3,8(sp)
    1088:	10f6f7d3          	fmul.s	fa5,fa3,fa5
    108c:	00e7f7d3          	fadd.s	fa5,fa5,fa4
    1090:	e0078553          	fmv.x.w	a0,fa5
    1094:	0bd020ef          	jal	ra,3950 
    1098:	00442787          	flw	fa5,4(s0)
    109c:	f0050753          	fmv.w.x	fa4,a0
    10a0:	a0f715d3          	flt.s	a1,fa4,fa5
    10a4:	00300513          	li	a0,3
    10a8:	00058c63          	beqz	a1,10c0 
    10ac:	000105b7          	lui	a1,0x10
    10b0:	05c5a583          	lw	a1,92(a1) # 1005c 
    10b4:	00812787          	flw	fa5,8(sp)
    10b8:	00f5a027          	fsw	fa5,0(a1)
    10bc:	0080006f          	j	10c4 
    10c0:	00000513          	li	a0,0
    10c4:	01c12083          	lw	ra,28(sp)
    10c8:	01812403          	lw	s0,24(sp)
    10cc:	01412483          	lw	s1,20(sp)
    10d0:	01012903          	lw	s2,16(sp)
    10d4:	00c12983          	lw	s3,12(sp)
    10d8:	02010113          	addi	sp,sp,32
    10dc:	00008067          	ret

00000000000010e0 :
    10e0:	00812503          	lw	a0,8(sp)
    10e4:	00052707          	flw	fa4,0(a0)
    10e8:	00072787          	flw	fa5,0(a4)
    10ec:	00452587          	flw	fa1,4(a0)
    10f0:	00472687          	flw	fa3,4(a4)
    10f4:	00852507          	flw	fa0,8(a0)
    10f8:	00872607          	flw	fa2,8(a4)
    10fc:	10f77753          	fmul.s	fa4,fa4,fa5
    1100:	10d5f5d3          	fmul.s	fa1,fa1,fa3
    1104:	00b77753          	fadd.s	fa4,fa4,fa1
    1108:	10c575d3          	fmul.s	fa1,fa0,fa2
    110c:	00b77753          	fadd.s	fa4,fa4,fa1
    1110:	f00005d3          	fmv.w.x	fa1,zero
    1114:	a0b70553          	fle.s	a0,fa4,fa1
    1118:	04051463          	bnez	a0,1160 
    111c:	00010537          	lui	a0,0x10
    1120:	09852503          	lw	a0,152(a0) # 10098 
    1124:	00052587          	flw	fa1,0(a0)
    1128:	00452507          	flw	fa0,4(a0)
    112c:	00852007          	flw	ft0,8(a0)
    1130:	10b7f7d3          	fmul.s	fa5,fa5,fa1
    1134:	10a6f6d3          	fmul.s	fa3,fa3,fa0
    1138:	00d7f7d3          	fadd.s	fa5,fa5,fa3
    113c:	100676d3          	fmul.s	fa3,fa2,ft0
    1140:	00010537          	lui	a0,0x10
    1144:	05c52503          	lw	a0,92(a0) # 1005c 
    1148:	00d7f7d3          	fadd.s	fa5,fa5,fa3
    114c:	20f797d3          	fneg.s	fa5,fa5
    1150:	18e7f7d3          	fdiv.s	fa5,fa5,fa4
    1154:	00f52027          	fsw	fa5,0(a0)
    1158:	00100513          	li	a0,1
    115c:	00008067          	ret
    1160:	00000513          	li	a0,0
    1164:	00008067          	ret

0000000000001168 :
    1168:	00812503          	lw	a0,8(sp)
    116c:	00052787          	flw	fa5,0(a0)
    1170:	00072707          	flw	fa4,0(a4)
    1174:	00452687          	flw	fa3,4(a0)
    1178:	10f7f7d3          	fmul.s	fa5,fa5,fa5
    117c:	10e7f7d3          	fmul.s	fa5,fa5,fa4
    1180:	00472707          	flw	fa4,4(a4)
    1184:	10d6f6d3          	fmul.s	fa3,fa3,fa3
    1188:	00852607          	flw	fa2,8(a0)
    118c:	00872587          	flw	fa1,8(a4)
    1190:	10e6f753          	fmul.s	fa4,fa3,fa4
    1194:	00e7f7d3          	fadd.s	fa5,fa5,fa4
    1198:	10c67753          	fmul.s	fa4,fa2,fa2
    119c:	10b77753          	fmul.s	fa4,fa4,fa1
    11a0:	00e7f7d3          	fadd.s	fa5,fa5,fa4
    11a4:	e0078553          	fmv.x.w	a0,fa5
    11a8:	00008067          	ret

00000000000011ac :
    11ac:	00812503          	lw	a0,8(sp)
    11b0:	00412583          	lw	a1,4(sp)
    11b4:	00452787          	flw	fa5,4(a0)
    11b8:	00852707          	flw	fa4,8(a0)
    11bc:	0005a687          	flw	fa3,0(a1)
    11c0:	00052607          	flw	fa2,0(a0)
    11c4:	10e7f5d3          	fmul.s	fa1,fa5,fa4
    11c8:	0045a507          	flw	fa0,4(a1)
    11cc:	10d5f6d3          	fmul.s	fa3,fa1,fa3
    11d0:	10c77753          	fmul.s	fa4,fa4,fa2
    11d4:	0085a587          	flw	fa1,8(a1)
    11d8:	10a77753          	fmul.s	fa4,fa4,fa0
    11dc:	00e6f753          	fadd.s	fa4,fa3,fa4
    11e0:	10c7f7d3          	fmul.s	fa5,fa5,fa2
    11e4:	10b7f7d3          	fmul.s	fa5,fa5,fa1
    11e8:	00f777d3          	fadd.s	fa5,fa4,fa5
    11ec:	e0078553          	fmv.x.w	a0,fa5
    11f0:	00008067          	ret

00000000000011f4 :
    11f4:	00010537          	lui	a0,0x10
    11f8:	09852503          	lw	a0,152(a0) # 10098 
    11fc:	00812583          	lw	a1,8(sp)
    1200:	00052787          	flw	fa5,0(a0)
    1204:	0005a707          	flw	fa4,0(a1)
    1208:	00072687          	flw	fa3,0(a4)
    120c:	00452607          	flw	fa2,4(a0)
    1210:	0045a587          	flw	fa1,4(a1)
    1214:	10e7f7d3          	fmul.s	fa5,fa5,fa4
    1218:	10d7f7d3          	fmul.s	fa5,fa5,fa3
    121c:	10b67753          	fmul.s	fa4,fa2,fa1
    1220:	00472687          	flw	fa3,4(a4)
    1224:	00852607          	flw	fa2,8(a0)
    1228:	0085a587          	flw	fa1,8(a1)
    122c:	00872507          	flw	fa0,8(a4)
    1230:	10d77753          	fmul.s	fa4,fa4,fa3
    1234:	00e7f7d3          	fadd.s	fa5,fa5,fa4
    1238:	10b67753          	fmul.s	fa4,fa2,fa1
    123c:	10a77753          	fmul.s	fa4,fa4,fa0
    1240:	00e7f7d3          	fadd.s	fa5,fa5,fa4
    1244:	e0078553          	fmv.x.w	a0,fa5
    1248:	00008067          	ret

000000000000124c :
    124c:	00010537          	lui	a0,0x10
    1250:	09852503          	lw	a0,152(a0) # 10098 
    1254:	00812583          	lw	a1,8(sp)
    1258:	00852787          	flw	fa5,8(a0)
    125c:	0045a707          	flw	fa4,4(a1)
    1260:	00452687          	flw	fa3,4(a0)
    1264:	0085a607          	flw	fa2,8(a1)
    1268:	00412603          	lw	a2,4(sp)
    126c:	10e7f5d3          	fmul.s	fa1,fa5,fa4
    1270:	10c6f553          	fmul.s	fa0,fa3,fa2
    1274:	00062007          	flw	ft0,0(a2)
    1278:	00a5f5d3          	fadd.s	fa1,fa1,fa0
    127c:	00052507          	flw	fa0,0(a0)
    1280:	0005a087          	flw	ft1,0(a1)
    1284:	10b075d3          	fmul.s	fa1,ft0,fa1
    1288:	00462007          	flw	ft0,4(a2)
    128c:	10a67653          	fmul.s	fa2,fa2,fa0
    1290:	1017f7d3          	fmul.s	fa5,fa5,ft1
    1294:	00f677d3          	fadd.s	fa5,fa2,fa5
    1298:	10f077d3          	fmul.s	fa5,ft0,fa5
    129c:	00f5f7d3          	fadd.s	fa5,fa1,fa5
    12a0:	00862607          	flw	fa2,8(a2)
    12a4:	10a77753          	fmul.s	fa4,fa4,fa0
    12a8:	1016f6d3          	fmul.s	fa3,fa3,ft1
    12ac:	00d77753          	fadd.s	fa4,fa4,fa3
    12b0:	10c77753          	fmul.s	fa4,fa4,fa2
    12b4:	00f777d3          	fadd.s	fa5,fa4,fa5
    12b8:	e0078553          	fmv.x.w	a0,fa5
    12bc:	00008067          	ret

00000000000012c0 :
    12c0:	ff010113          	addi	sp,sp,-16
    12c4:	00112623          	sw	ra,12(sp)
    12c8:	00812423          	sw	s0,8(sp)
    12cc:	01812603          	lw	a2,24(sp)
    12d0:	00062587          	flw	fa1,0(a2)
    12d4:	00072707          	flw	fa4,0(a4)
    12d8:	01412503          	lw	a0,20(sp)
    12dc:	00462507          	flw	fa0,4(a2)
    12e0:	10b5f7d3          	fmul.s	fa5,fa1,fa1
    12e4:	10e7f7d3          	fmul.s	fa5,fa5,fa4
    12e8:	00472687          	flw	fa3,4(a4)
    12ec:	10a57053          	fmul.s	ft0,fa0,fa0
    12f0:	00862107          	flw	ft2,8(a2)
    12f4:	00872607          	flw	fa2,8(a4)
    12f8:	10d07053          	fmul.s	ft0,ft0,fa3
    12fc:	0007f7d3          	fadd.s	fa5,fa5,ft0
    1300:	10217053          	fmul.s	ft0,ft2,ft2
    1304:	10c07053          	fmul.s	ft0,ft0,fa2
    1308:	0007f3d3          	fadd.s	ft7,fa5,ft0
    130c:	02068a63          	beqz	a3,1340 
    1310:	00052787          	flw	fa5,0(a0)
    1314:	10257053          	fmul.s	ft0,fa0,ft2
    1318:	00452087          	flw	ft1,4(a0)
    131c:	10f077d3          	fmul.s	fa5,ft0,fa5
    1320:	1025f053          	fmul.s	ft0,fa1,ft2
    1324:	00852187          	flw	ft3,8(a0)
    1328:	10107053          	fmul.s	ft0,ft0,ft1
    132c:	0007f7d3          	fadd.s	fa5,fa5,ft0
    1330:	10a5f053          	fmul.s	ft0,fa1,fa0
    1334:	10307053          	fmul.s	ft0,ft0,ft3
    1338:	0007f7d3          	fadd.s	fa5,fa5,ft0
    133c:	00f3f3d3          	fadd.s	ft7,ft7,fa5
    1340:	f00007d3          	fmv.w.x	fa5,zero
    1344:	a0f3a653          	feq.s	a2,ft7,fa5
    1348:	16061263          	bnez	a2,14ac 
    134c:	00010637          	lui	a2,0x10
    1350:	09862603          	lw	a2,152(a2) # 10098 
    1354:	00062007          	flw	ft0,0(a2)
    1358:	00462087          	flw	ft1,4(a2)
    135c:	1005f1d3          	fmul.s	ft3,fa1,ft0
    1360:	10377253          	fmul.s	ft4,fa4,ft3
    1364:	00862187          	flw	ft3,8(a2)
    1368:	101572d3          	fmul.s	ft5,fa0,ft1
    136c:	1056f2d3          	fmul.s	ft5,fa3,ft5
    1370:	00527253          	fadd.s	ft4,ft4,ft5
    1374:	103172d3          	fmul.s	ft5,ft2,ft3
    1378:	105672d3          	fmul.s	ft5,fa2,ft5
    137c:	00527253          	fadd.s	ft4,ft4,ft5
    1380:	00427853          	fadd.s	fa6,ft4,ft4
    1384:	04068663          	beqz	a3,13d0 
    1388:	00052207          	flw	ft4,0(a0)
    138c:	103572d3          	fmul.s	ft5,fa0,ft3
    1390:	10117353          	fmul.s	ft6,ft2,ft1
    1394:	005372d3          	fadd.s	ft5,ft6,ft5
    1398:	1042f253          	fmul.s	ft4,ft5,ft4
    139c:	00452287          	flw	ft5,4(a0)
    13a0:	10017153          	fmul.s	ft2,ft2,ft0
    13a4:	1035f353          	fmul.s	ft6,fa1,ft3
    13a8:	00617153          	fadd.s	ft2,ft2,ft6
    13ac:	10517153          	fmul.s	ft2,ft2,ft5
    13b0:	00227153          	fadd.s	ft2,ft4,ft2
    13b4:	00852207          	flw	ft4,8(a0)
    13b8:	10057553          	fmul.s	fa0,fa0,ft0
    13bc:	1015f5d3          	fmul.s	fa1,fa1,ft1
    13c0:	00b575d3          	fadd.s	fa1,fa0,fa1
    13c4:	1045f5d3          	fmul.s	fa1,fa1,ft4
    13c8:	0025f5d3          	fadd.s	fa1,fa1,ft2
    13cc:	00b87853          	fadd.s	fa6,fa6,fa1
    13d0:	100075d3          	fmul.s	fa1,ft0,ft0
    13d4:	10b77753          	fmul.s	fa4,fa4,fa1
    13d8:	1010f5d3          	fmul.s	fa1,ft1,ft1
    13dc:	10b6f6d3          	fmul.s	fa3,fa3,fa1
    13e0:	00d77753          	fadd.s	fa4,fa4,fa3
    13e4:	1031f6d3          	fmul.s	fa3,ft3,ft3
    13e8:	10d676d3          	fmul.s	fa3,fa2,fa3
    13ec:	00d77753          	fadd.s	fa4,fa4,fa3
    13f0:	02068a63          	beqz	a3,1424 
    13f4:	00052687          	flw	fa3,0(a0)
    13f8:	1030f653          	fmul.s	fa2,ft1,ft3
    13fc:	00452587          	flw	fa1,4(a0)
    1400:	10d676d3          	fmul.s	fa3,fa2,fa3
    1404:	10307653          	fmul.s	fa2,ft0,ft3
    1408:	00852507          	flw	fa0,8(a0)
    140c:	10b67653          	fmul.s	fa2,fa2,fa1
    1410:	00c6f6d3          	fadd.s	fa3,fa3,fa2
    1414:	10107653          	fmul.s	fa2,ft0,ft1
    1418:	10a67653          	fmul.s	fa2,fa2,fa0
    141c:	00c6f6d3          	fadd.s	fa3,fa3,fa2
    1420:	00d77753          	fadd.s	fa4,fa4,fa3
    1424:	00300513          	li	a0,3
    1428:	00a59863          	bne	a1,a0,1438 
    142c:	bf800537          	lui	a0,0xbf800
    1430:	f00506d3          	fmv.w.x	fa3,a0
    1434:	00d77753          	fadd.s	fa4,fa4,fa3
    1438:	c0800537          	lui	a0,0xc0800
    143c:	f00506d3          	fmv.w.x	fa3,a0
    1440:	10d3f6d3          	fmul.s	fa3,ft7,fa3
    1444:	10e6f753          	fmul.s	fa4,fa3,fa4
    1448:	110876d3          	fmul.s	fa3,fa6,fa6
    144c:	00e6f753          	fadd.s	fa4,fa3,fa4
    1450:	a0f70553          	fle.s	a0,fa4,fa5
    1454:	04051c63          	bnez	a0,14ac 
    1458:	01012027          	fsw	fa6,0(sp)
    145c:	00712227          	fsw	ft7,4(sp)
    1460:	e0070553          	fmv.x.w	a0,fa4
    1464:	00080413          	mv	s0,a6
    1468:	109020ef          	jal	ra,3d70 
    146c:	00147413          	andi	s0,s0,1
    1470:	f00507d3          	fmv.w.x	fa5,a0
    1474:	00041463          	bnez	s0,147c 
    1478:	20f797d3          	fneg.s	fa5,fa5
    147c:	00412687          	flw	fa3,4(sp)
    1480:	00012707          	flw	fa4,0(sp)
    1484:	08e7f7d3          	fsub.s	fa5,fa5,fa4
    1488:	3f000537          	lui	a0,0x3f000
    148c:	000105b7          	lui	a1,0x10
    1490:	05c5a583          	lw	a1,92(a1) # 1005c 
    1494:	f0050753          	fmv.w.x	fa4,a0
    1498:	10e7f7d3          	fmul.s	fa5,fa5,fa4
    149c:	18d7f7d3          	fdiv.s	fa5,fa5,fa3
    14a0:	00f5a027          	fsw	fa5,0(a1)
    14a4:	00100513          	li	a0,1
    14a8:	0080006f          	j	14b0 
    14ac:	00000513          	li	a0,0
    14b0:	00c12083          	lw	ra,12(sp)
    14b4:	00812403          	lw	s0,8(sp)
    14b8:	01010113          	addi	sp,sp,16
    14bc:	00008067          	ret

00000000000014c0 :
    14c0:	fe010113          	addi	sp,sp,-32
    14c4:	00112e23          	sw	ra,28(sp)
    14c8:	00812c23          	sw	s0,24(sp)
    14cc:	00912a23          	sw	s1,20(sp)
    14d0:	01212823          	sw	s2,16(sp)
    14d4:	000106b7          	lui	a3,0x10
    14d8:	0006a903          	lw	s2,0(a3) # 10000 
    14dc:	00060493          	mv	s1,a2
    14e0:	00058413          	mv	s0,a1
    14e4:	02800593          	li	a1,40
    14e8:	cc9fe0ef          	jal	ra,1b0 <__mulsi3>
    14ec:	00a90533          	add	a0,s2,a0
    14f0:	02452283          	lw	t0,36(a0) # 3f000024 <_sstack+0x3ed122f8>
    14f4:	02052303          	lw	t1,32(a0)
    14f8:	01c52883          	lw	a7,28(a0)
    14fc:	01854803          	lbu	a6,24(a0)
    1500:	01052703          	lw	a4,16(a0)
    1504:	01452783          	lw	a5,20(a0)
    1508:	00c52683          	lw	a3,12(a0)
    150c:	00852603          	lw	a2,8(a0)
    1510:	0004a787          	flw	fa5,0(s1)
    1514:	0007a707          	flw	fa4,0(a5)
    1518:	000105b7          	lui	a1,0x10
    151c:	0985a383          	lw	t2,152(a1) # 10098 
    1520:	00452583          	lw	a1,4(a0)
    1524:	00052503          	lw	a0,0(a0)
    1528:	08e7f7d3          	fsub.s	fa5,fa5,fa4
    152c:	00f3a027          	fsw	fa5,0(t2)
    1530:	0044a707          	flw	fa4,4(s1)
    1534:	0047a687          	flw	fa3,4(a5)
    1538:	08d77753          	fsub.s	fa4,fa4,fa3
    153c:	00e3a227          	fsw	fa4,4(t2)
    1540:	0084a687          	flw	fa3,8(s1)
    1544:	0087a607          	flw	fa2,8(a5)
    1548:	08c6f6d3          	fsub.s	fa3,fa3,fa2
    154c:	00200e13          	li	t3,2
    1550:	00d3a427          	fsw	fa3,8(t2)
    1554:	03c58063          	beq	a1,t3,1574 
    1558:	00100393          	li	t2,1
    155c:	08759063          	bne	a1,t2,15dc 
    1560:	00812423          	sw	s0,8(sp)
    1564:	00612023          	sw	t1,0(sp)
    1568:	00512223          	sw	t0,4(sp)
    156c:	921ff0ef          	jal	ra,e8c 
    1570:	0840006f          	j	15f4 
    1574:	00042587          	flw	fa1,0(s0)
    1578:	00072607          	flw	fa2,0(a4)
    157c:	00442087          	flw	ft1,4(s0)
    1580:	00472507          	flw	fa0,4(a4)
    1584:	00842107          	flw	ft2,8(s0)
    1588:	00872007          	flw	ft0,8(a4)
    158c:	10c5f5d3          	fmul.s	fa1,fa1,fa2
    1590:	10a0f0d3          	fmul.s	ft1,ft1,fa0
    1594:	0015f5d3          	fadd.s	fa1,fa1,ft1
    1598:	100170d3          	fmul.s	ft1,ft2,ft0
    159c:	0015f5d3          	fadd.s	fa1,fa1,ft1
    15a0:	f00000d3          	fmv.w.x	ft1,zero
    15a4:	a0158553          	fle.s	a0,fa1,ft1
    15a8:	04051463          	bnez	a0,15f0 
    15ac:	10c7f7d3          	fmul.s	fa5,fa5,fa2
    15b0:	10a77753          	fmul.s	fa4,fa4,fa0
    15b4:	00e7f7d3          	fadd.s	fa5,fa5,fa4
    15b8:	1006f753          	fmul.s	fa4,fa3,ft0
    15bc:	00010537          	lui	a0,0x10
    15c0:	05c52503          	lw	a0,92(a0) # 1005c 
    15c4:	00e7f7d3          	fadd.s	fa5,fa5,fa4
    15c8:	20f797d3          	fneg.s	fa5,fa5
    15cc:	18b7f7d3          	fdiv.s	fa5,fa5,fa1
    15d0:	00f52027          	fsw	fa5,0(a0)
    15d4:	00100513          	li	a0,1
    15d8:	01c0006f          	j	15f4 
    15dc:	00812423          	sw	s0,8(sp)
    15e0:	00612023          	sw	t1,0(sp)
    15e4:	00512223          	sw	t0,4(sp)
    15e8:	cd9ff0ef          	jal	ra,12c0 
    15ec:	0080006f          	j	15f4 
    15f0:	00000513          	li	a0,0
    15f4:	01c12083          	lw	ra,28(sp)
    15f8:	01812403          	lw	s0,24(sp)
    15fc:	01412483          	lw	s1,20(sp)
    1600:	01012903          	lw	s2,16(sp)
    1604:	02010113          	addi	sp,sp,32
    1608:	00008067          	ret

000000000000160c :
    160c:	ff010113          	addi	sp,sp,-16
    1610:	00112623          	sw	ra,12(sp)
    1614:	00812423          	sw	s0,8(sp)
    1618:	00912223          	sw	s1,4(sp)
    161c:	01212023          	sw	s2,0(sp)
    1620:	00010537          	lui	a0,0x10
    1624:	0a052903          	lw	s2,160(a0) # 100a0 
    1628:	00092503          	lw	a0,0(s2)
    162c:	00080413          	mv	s0,a6
    1630:	00070493          	mv	s1,a4
    1634:	31c020ef          	jal	ra,3950 
    1638:	0004a787          	flw	fa5,0(s1)
    163c:	f0050753          	fmv.w.x	fa4,a0
    1640:	a0e78553          	fle.s	a0,fa5,fa4
    1644:	04051863          	bnez	a0,1694 
    1648:	00492503          	lw	a0,4(s2)
    164c:	304020ef          	jal	ra,3950 
    1650:	0044a787          	flw	fa5,4(s1)
    1654:	f0050753          	fmv.w.x	fa4,a0
    1658:	a0e78553          	fle.s	a0,fa5,fa4
    165c:	02051c63          	bnez	a0,1694 
    1660:	00892503          	lw	a0,8(s2)
    1664:	2ec020ef          	jal	ra,3950 
    1668:	0084a787          	flw	fa5,8(s1)
    166c:	f0050753          	fmv.w.x	fa4,a0
    1670:	a0e78553          	fle.s	a0,fa5,fa4
    1674:	02051063          	bnez	a0,1694 
    1678:	00040513          	mv	a0,s0
    167c:	00c12083          	lw	ra,12(sp)
    1680:	00812403          	lw	s0,8(sp)
    1684:	00412483          	lw	s1,4(sp)
    1688:	00012903          	lw	s2,0(sp)
    168c:	01010113          	addi	sp,sp,16
    1690:	00008067          	ret
    1694:	00040513          	mv	a0,s0
    1698:	00c12083          	lw	ra,12(sp)
    169c:	00812403          	lw	s0,8(sp)
    16a0:	00412483          	lw	s1,4(sp)
    16a4:	00012903          	lw	s2,0(sp)
    16a8:	01010113          	addi	sp,sp,16
    16ac:	1240206f          	j	37d0 

00000000000016b0 :
    16b0:	00010537          	lui	a0,0x10
    16b4:	0a052503          	lw	a0,160(a0) # 100a0 
    16b8:	00072787          	flw	fa5,0(a4)
    16bc:	00052707          	flw	fa4,0(a0)
    16c0:	00472687          	flw	fa3,4(a4)
    16c4:	00452607          	flw	fa2,4(a0)
    16c8:	00872587          	flw	fa1,8(a4)
    16cc:	00852507          	flw	fa0,8(a0)
    16d0:	10e7f7d3          	fmul.s	fa5,fa5,fa4
    16d4:	10c6f753          	fmul.s	fa4,fa3,fa2
    16d8:	00e7f7d3          	fadd.s	fa5,fa5,fa4
    16dc:	10a5f753          	fmul.s	fa4,fa1,fa0
    16e0:	00e7f7d3          	fadd.s	fa5,fa5,fa4
    16e4:	f0000753          	fmv.w.x	fa4,zero
    16e8:	00187593          	andi	a1,a6,1
    16ec:	a0e79553          	flt.s	a0,fa5,fa4
    16f0:	00058c63          	beqz	a1,1708 
    16f4:	ff010113          	addi	sp,sp,-16
    16f8:	00112623          	sw	ra,12(sp)
    16fc:	0d4020ef          	jal	ra,37d0 
    1700:	00c12083          	lw	ra,12(sp)
    1704:	01010113          	addi	sp,sp,16
    1708:	0c80206f          	j	37d0 

000000000000170c :
    170c:	00010537          	lui	a0,0x10
    1710:	0a052503          	lw	a0,160(a0) # 100a0 
    1714:	00052787          	flw	fa5,0(a0)
    1718:	00072687          	flw	fa3,0(a4)
    171c:	00452707          	flw	fa4,4(a0)
    1720:	10f7f653          	fmul.s	fa2,fa5,fa5
    1724:	10d676d3          	fmul.s	fa3,fa2,fa3
    1728:	00472587          	flw	fa1,4(a4)
    172c:	10e77553          	fmul.s	fa0,fa4,fa4
    1730:	00852607          	flw	fa2,8(a0)
    1734:	00872007          	flw	ft0,8(a4)
    1738:	10b575d3          	fmul.s	fa1,fa0,fa1
    173c:	00b6f6d3          	fadd.s	fa3,fa3,fa1
    1740:	10c675d3          	fmul.s	fa1,fa2,fa2
    1744:	1005f5d3          	fmul.s	fa1,fa1,ft0
    1748:	00300513          	li	a0,3
    174c:	00b6f6d3          	fadd.s	fa3,fa3,fa1
    1750:	00a59863          	bne	a1,a0,1760 
    1754:	bf800537          	lui	a0,0xbf800
    1758:	f00505d3          	fmv.w.x	fa1,a0
    175c:	00b6f6d3          	fadd.s	fa3,fa3,fa1
    1760:	ff010113          	addi	sp,sp,-16
    1764:	00112623          	sw	ra,12(sp)
    1768:	02068c63          	beqz	a3,17a0 
    176c:	01412503          	lw	a0,20(sp)
    1770:	00052587          	flw	fa1,0(a0) # ffffffffbf800000 <_sstack+0xffffffffbf5122d4>
    1774:	10c77553          	fmul.s	fa0,fa4,fa2
    1778:	00452007          	flw	ft0,4(a0)
    177c:	10b575d3          	fmul.s	fa1,fa0,fa1
    1780:	10c7f653          	fmul.s	fa2,fa5,fa2
    1784:	00852507          	flw	fa0,8(a0)
    1788:	10067653          	fmul.s	fa2,fa2,ft0
    178c:	00c5f653          	fadd.s	fa2,fa1,fa2
    1790:	10e7f7d3          	fmul.s	fa5,fa5,fa4
    1794:	10a7f7d3          	fmul.s	fa5,fa5,fa0
    1798:	00f677d3          	fadd.s	fa5,fa2,fa5
    179c:	00f6f6d3          	fadd.s	fa3,fa3,fa5
    17a0:	f00007d3          	fmv.w.x	fa5,zero
    17a4:	00187593          	andi	a1,a6,1
    17a8:	a0f69553          	flt.s	a0,fa3,fa5
    17ac:	00058463          	beqz	a1,17b4 
    17b0:	020020ef          	jal	ra,37d0 
    17b4:	00c12083          	lw	ra,12(sp)
    17b8:	01010113          	addi	sp,sp,16
    17bc:	0140206f          	j	37d0 

00000000000017c0 :
    17c0:	ff010113          	addi	sp,sp,-16
    17c4:	00112623          	sw	ra,12(sp)
    17c8:	00812423          	sw	s0,8(sp)
    17cc:	00912223          	sw	s1,4(sp)
    17d0:	01212023          	sw	s2,0(sp)
    17d4:	00010537          	lui	a0,0x10
    17d8:	09c52603          	lw	a2,156(a0) # 1009c 
    17dc:	00062787          	flw	fa5,0(a2)
    17e0:	0007a707          	flw	fa4,0(a5)
    17e4:	00010537          	lui	a0,0x10
    17e8:	0a052903          	lw	s2,160(a0) # 100a0 
    17ec:	01412503          	lw	a0,20(sp)
    17f0:	08e7f7d3          	fsub.s	fa5,fa5,fa4
    17f4:	00f92027          	fsw	fa5,0(s2)
    17f8:	00462707          	flw	fa4,4(a2)
    17fc:	0047a687          	flw	fa3,4(a5)
    1800:	08d77753          	fsub.s	fa4,fa4,fa3
    1804:	00e92227          	fsw	fa4,4(s2)
    1808:	00862687          	flw	fa3,8(a2)
    180c:	0087a607          	flw	fa2,8(a5)
    1810:	00070413          	mv	s0,a4
    1814:	08c6f6d3          	fsub.s	fa3,fa3,fa2
    1818:	00200613          	li	a2,2
    181c:	00d92427          	fsw	fa3,8(s2)
    1820:	06c58a63          	beq	a1,a2,1894 
    1824:	00100613          	li	a2,1
    1828:	0ac59063          	bne	a1,a2,18c8 
    182c:	00080493          	mv	s1,a6
    1830:	e0078553          	fmv.x.w	a0,fa5
    1834:	11c020ef          	jal	ra,3950 
    1838:	00042787          	flw	fa5,0(s0)
    183c:	f0050753          	fmv.w.x	fa4,a0
    1840:	a0e78553          	fle.s	a0,fa5,fa4
    1844:	10051863          	bnez	a0,1954 
    1848:	00492503          	lw	a0,4(s2)
    184c:	104020ef          	jal	ra,3950 
    1850:	00442787          	flw	fa5,4(s0)
    1854:	f0050753          	fmv.w.x	fa4,a0
    1858:	a0e78553          	fle.s	a0,fa5,fa4
    185c:	0e051c63          	bnez	a0,1954 
    1860:	00892503          	lw	a0,8(s2)
    1864:	0ec020ef          	jal	ra,3950 
    1868:	00842787          	flw	fa5,8(s0)
    186c:	f0050753          	fmv.w.x	fa4,a0
    1870:	a0e78553          	fle.s	a0,fa5,fa4
    1874:	0e051063          	bnez	a0,1954 
    1878:	00048513          	mv	a0,s1
    187c:	00c12083          	lw	ra,12(sp)
    1880:	00812403          	lw	s0,8(sp)
    1884:	00412483          	lw	s1,4(sp)
    1888:	00012903          	lw	s2,0(sp)
    188c:	01010113          	addi	sp,sp,16
    1890:	00008067          	ret
    1894:	00042607          	flw	fa2,0(s0)
    1898:	00442587          	flw	fa1,4(s0)
    189c:	00842507          	flw	fa0,8(s0)
    18a0:	10c7f7d3          	fmul.s	fa5,fa5,fa2
    18a4:	10b77753          	fmul.s	fa4,fa4,fa1
    18a8:	00e7f7d3          	fadd.s	fa5,fa5,fa4
    18ac:	10a6f753          	fmul.s	fa4,fa3,fa0
    18b0:	00e7f7d3          	fadd.s	fa5,fa5,fa4
    18b4:	f0000753          	fmv.w.x	fa4,zero
    18b8:	00187593          	andi	a1,a6,1
    18bc:	a0e79553          	flt.s	a0,fa5,fa4
    18c0:	08059663          	bnez	a1,194c 
    18c4:	0940006f          	j	1958 
    18c8:	00042607          	flw	fa2,0(s0)
    18cc:	10f7f5d3          	fmul.s	fa1,fa5,fa5
    18d0:	00442507          	flw	fa0,4(s0)
    18d4:	10c5f653          	fmul.s	fa2,fa1,fa2
    18d8:	10e775d3          	fmul.s	fa1,fa4,fa4
    18dc:	00842007          	flw	ft0,8(s0)
    18e0:	10a5f5d3          	fmul.s	fa1,fa1,fa0
    18e4:	00b67653          	fadd.s	fa2,fa2,fa1
    18e8:	10d6f5d3          	fmul.s	fa1,fa3,fa3
    18ec:	1005f5d3          	fmul.s	fa1,fa1,ft0
    18f0:	00300613          	li	a2,3
    18f4:	00b67653          	fadd.s	fa2,fa2,fa1
    18f8:	00c59863          	bne	a1,a2,1908 
    18fc:	bf8005b7          	lui	a1,0xbf800
    1900:	f00585d3          	fmv.w.x	fa1,a1
    1904:	00b67653          	fadd.s	fa2,fa2,fa1
    1908:	02068a63          	beqz	a3,193c 
    190c:	00052587          	flw	fa1,0(a0)
    1910:	10d77553          	fmul.s	fa0,fa4,fa3
    1914:	00452007          	flw	ft0,4(a0)
    1918:	10b575d3          	fmul.s	fa1,fa0,fa1
    191c:	10d7f6d3          	fmul.s	fa3,fa5,fa3
    1920:	00852507          	flw	fa0,8(a0)
    1924:	1006f6d3          	fmul.s	fa3,fa3,ft0
    1928:	00d5f6d3          	fadd.s	fa3,fa1,fa3
    192c:	10e7f7d3          	fmul.s	fa5,fa5,fa4
    1930:	10a7f7d3          	fmul.s	fa5,fa5,fa0
    1934:	00f6f7d3          	fadd.s	fa5,fa3,fa5
    1938:	00f67653          	fadd.s	fa2,fa2,fa5
    193c:	f00007d3          	fmv.w.x	fa5,zero
    1940:	00187593          	andi	a1,a6,1
    1944:	a0f61553          	flt.s	a0,fa2,fa5
    1948:	00058863          	beqz	a1,1958 
    194c:	685010ef          	jal	ra,37d0 
    1950:	0080006f          	j	1958 
    1954:	00048513          	mv	a0,s1
    1958:	00c12083          	lw	ra,12(sp)
    195c:	00812403          	lw	s0,8(sp)
    1960:	00412483          	lw	s1,4(sp)
    1964:	00012903          	lw	s2,0(sp)
    1968:	01010113          	addi	sp,sp,16
    196c:	6650106f          	j	37d0 

0000000000001970 :
    1970:	fe010113          	addi	sp,sp,-32
    1974:	00112e23          	sw	ra,28(sp)
    1978:	00812c23          	sw	s0,24(sp)
    197c:	00912a23          	sw	s1,20(sp)
    1980:	01212823          	sw	s2,16(sp)
    1984:	01312623          	sw	s3,12(sp)
    1988:	00251513          	slli	a0,a0,0x2
    198c:	00a585b3          	add	a1,a1,a0
    1990:	0005a503          	lw	a0,0(a1) # ffffffffbf800000 <_sstack+0xffffffffbf5122d4>
    1994:	fff00493          	li	s1,-1
    1998:	00100413          	li	s0,1
    199c:	06950663          	beq	a0,s1,1a08 
    19a0:	00010637          	lui	a2,0x10
    19a4:	00062903          	lw	s2,0(a2) # 10000 
    19a8:	00458993          	addi	s3,a1,4
    19ac:	02800593          	li	a1,40
    19b0:	801fe0ef          	jal	ra,1b0 <__mulsi3>
    19b4:	00a90833          	add	a6,s2,a0
    19b8:	01c82883          	lw	a7,28(a6)
    19bc:	01482783          	lw	a5,20(a6)
    19c0:	01082703          	lw	a4,16(a6)
    19c4:	00c82683          	lw	a3,12(a6)
    19c8:	00882603          	lw	a2,8(a6)
    19cc:	00482583          	lw	a1,4(a6)
    19d0:	00082503          	lw	a0,0(a6)
    19d4:	02082283          	lw	t0,32(a6)
    19d8:	02482303          	lw	t1,36(a6)
    19dc:	01884803          	lbu	a6,24(a6)
    19e0:	00612223          	sw	t1,4(sp)
    19e4:	00512023          	sw	t0,0(sp)
    19e8:	dd9ff0ef          	jal	ra,17c0 
    19ec:	00157513          	andi	a0,a0,1
    19f0:	00051a63          	bnez	a0,1a04 
    19f4:	0009a503          	lw	a0,0(s3)
    19f8:	00498993          	addi	s3,s3,4
    19fc:	fa9518e3          	bne	a0,s1,19ac 
    1a00:	0080006f          	j	1a08 
    1a04:	00000413          	li	s0,0
    1a08:	00040513          	mv	a0,s0
    1a0c:	01c12083          	lw	ra,28(sp)
    1a10:	01812403          	lw	s0,24(sp)
    1a14:	01412483          	lw	s1,20(sp)
    1a18:	01012903          	lw	s2,16(sp)
    1a1c:	00c12983          	lw	s3,12(sp)
    1a20:	02010113          	addi	sp,sp,32
    1a24:	00008067          	ret

0000000000001a28 :
    1a28:	fc010113          	addi	sp,sp,-64
    1a2c:	02112e23          	sw	ra,60(sp)
    1a30:	02812c23          	sw	s0,56(sp)
    1a34:	02912a23          	sw	s1,52(sp)
    1a38:	03212823          	sw	s2,48(sp)
    1a3c:	03312623          	sw	s3,44(sp)
    1a40:	03412423          	sw	s4,40(sp)
    1a44:	03512223          	sw	s5,36(sp)
    1a48:	03612023          	sw	s6,32(sp)
    1a4c:	01712e23          	sw	s7,28(sp)
    1a50:	01812c23          	sw	s8,24(sp)
    1a54:	01912a23          	sw	s9,20(sp)
    1a58:	01a12823          	sw	s10,16(sp)
    1a5c:	00050493          	mv	s1,a0
    1a60:	00251513          	slli	a0,a0,0x2
    1a64:	00a58533          	add	a0,a1,a0
    1a68:	00052a03          	lw	s4,0(a0)
    1a6c:	fff00a93          	li	s5,-1
    1a70:	155a0463          	beq	s4,s5,1bb8 
    1a74:	00058413          	mv	s0,a1
    1a78:	00060913          	mv	s2,a2
    1a7c:	00010537          	lui	a0,0x10
    1a80:	02452983          	lw	s3,36(a0) # 10024 
    1a84:	00010537          	lui	a0,0x10
    1a88:	05c52b03          	lw	s6,92(a0) # 1005c 
    1a8c:	00010537          	lui	a0,0x10
    1a90:	00052b83          	lw	s7,0(a0) # 10000 
    1a94:	00010537          	lui	a0,0x10
    1a98:	09c52c03          	lw	s8,156(a0) # 1009c 
    1a9c:	002ec537          	lui	a0,0x2ec
    1aa0:	7a852787          	flw	fa5,1960(a0) # 2ec7a8 
    1aa4:	00f12627          	fsw	fa5,12(sp)
    1aa8:	002ec537          	lui	a0,0x2ec
    1aac:	7ac52787          	flw	fa5,1964(a0) # 2ec7ac 
    1ab0:	00f12427          	fsw	fa5,8(sp)
    1ab4:	00458c93          	addi	s9,a1,4
    1ab8:	000a0513          	mv	a0,s4
    1abc:	00098593          	mv	a1,s3
    1ac0:	00090613          	mv	a2,s2
    1ac4:	9fdff0ef          	jal	ra,14c0 
    1ac8:	0c050063          	beqz	a0,1b88 
    1acc:	000b2787          	flw	fa5,0(s6)
    1ad0:	00c12707          	flw	fa4,12(sp)
    1ad4:	a0e79553          	flt.s	a0,fa5,fa4
    1ad8:	0a050863          	beqz	a0,1b88 
    1adc:	0009a707          	flw	fa4,0(s3)
    1ae0:	00092687          	flw	fa3,0(s2)
    1ae4:	00812607          	flw	fa2,8(sp)
    1ae8:	00c7f7d3          	fadd.s	fa5,fa5,fa2
    1aec:	10e7f753          	fmul.s	fa4,fa5,fa4
    1af0:	00d77753          	fadd.s	fa4,fa4,fa3
    1af4:	00ec2027          	fsw	fa4,0(s8)
    1af8:	0049a707          	flw	fa4,4(s3)
    1afc:	00492687          	flw	fa3,4(s2)
    1b00:	10e7f753          	fmul.s	fa4,fa5,fa4
    1b04:	00d77753          	fadd.s	fa4,fa4,fa3
    1b08:	00ec2227          	fsw	fa4,4(s8)
    1b0c:	0089a707          	flw	fa4,8(s3)
    1b10:	00892687          	flw	fa3,8(s2)
    1b14:	10e7f7d3          	fmul.s	fa5,fa5,fa4
    1b18:	00d7f7d3          	fadd.s	fa5,fa5,fa3
    1b1c:	00fc2427          	fsw	fa5,8(s8)
    1b20:	00042503          	lw	a0,0(s0)
    1b24:	00100a13          	li	s4,1
    1b28:	000c8d13          	mv	s10,s9
    1b2c:	09550863          	beq	a0,s5,1bbc 
    1b30:	02800593          	li	a1,40
    1b34:	e7cfe0ef          	jal	ra,1b0 <__mulsi3>
    1b38:	00ab8833          	add	a6,s7,a0
    1b3c:	01c82883          	lw	a7,28(a6)
    1b40:	01482783          	lw	a5,20(a6)
    1b44:	01082703          	lw	a4,16(a6)
    1b48:	00c82683          	lw	a3,12(a6)
    1b4c:	00882603          	lw	a2,8(a6)
    1b50:	00482583          	lw	a1,4(a6)
    1b54:	00082503          	lw	a0,0(a6)
    1b58:	02082283          	lw	t0,32(a6)
    1b5c:	02482303          	lw	t1,36(a6)
    1b60:	01884803          	lbu	a6,24(a6)
    1b64:	00612223          	sw	t1,4(sp)
    1b68:	00512023          	sw	t0,0(sp)
    1b6c:	c55ff0ef          	jal	ra,17c0 
    1b70:	00157513          	andi	a0,a0,1
    1b74:	02051863          	bnez	a0,1ba4 
    1b78:	000d2503          	lw	a0,0(s10)
    1b7c:	004d0d13          	addi	s10,s10,4
    1b80:	fb5518e3          	bne	a0,s5,1b30 
    1b84:	0380006f          	j	1bbc 
    1b88:	02800593          	li	a1,40
    1b8c:	000a0513          	mv	a0,s4
    1b90:	e20fe0ef          	jal	ra,1b0 <__mulsi3>
    1b94:	00ab8533          	add	a0,s7,a0
    1b98:	01854503          	lbu	a0,24(a0)
    1b9c:	00157513          	andi	a0,a0,1
    1ba0:	00050c63          	beqz	a0,1bb8 
    1ba4:	00148493          	addi	s1,s1,1
    1ba8:	00249513          	slli	a0,s1,0x2
    1bac:	00a40533          	add	a0,s0,a0
    1bb0:	00052a03          	lw	s4,0(a0)
    1bb4:	f15a12e3          	bne	s4,s5,1ab8 
    1bb8:	00000a13          	li	s4,0
    1bbc:	000a0513          	mv	a0,s4
    1bc0:	03c12083          	lw	ra,60(sp)
    1bc4:	03812403          	lw	s0,56(sp)
    1bc8:	03412483          	lw	s1,52(sp)
    1bcc:	03012903          	lw	s2,48(sp)
    1bd0:	02c12983          	lw	s3,44(sp)
    1bd4:	02812a03          	lw	s4,40(sp)
    1bd8:	02412a83          	lw	s5,36(sp)
    1bdc:	02012b03          	lw	s6,32(sp)
    1be0:	01c12b83          	lw	s7,28(sp)
    1be4:	01812c03          	lw	s8,24(sp)
    1be8:	01412c83          	lw	s9,20(sp)
    1bec:	01012d03          	lw	s10,16(sp)
    1bf0:	04010113          	addi	sp,sp,64
    1bf4:	00008067          	ret

0000000000001bf8 :
    1bf8:	fe010113          	addi	sp,sp,-32
    1bfc:	00112e23          	sw	ra,28(sp)
    1c00:	00812c23          	sw	s0,24(sp)
    1c04:	00912a23          	sw	s1,20(sp)
    1c08:	01212823          	sw	s2,16(sp)
    1c0c:	01312623          	sw	s3,12(sp)
    1c10:	00251513          	slli	a0,a0,0x2
    1c14:	00a585b3          	add	a1,a1,a0
    1c18:	0005a503          	lw	a0,0(a1)
    1c1c:	fff00493          	li	s1,-1
    1c20:	04950063          	beq	a0,s1,1c60 
    1c24:	00060413          	mv	s0,a2
    1c28:	00010637          	lui	a2,0x10
    1c2c:	05062903          	lw	s2,80(a2) # 10050 
    1c30:	00458993          	addi	s3,a1,4
    1c34:	00251513          	slli	a0,a0,0x2
    1c38:	00a90533          	add	a0,s2,a0
    1c3c:	00052583          	lw	a1,0(a0)
    1c40:	00000513          	li	a0,0
    1c44:	00040613          	mv	a2,s0
    1c48:	de1ff0ef          	jal	ra,1a28 
    1c4c:	0ff57513          	andi	a0,a0,255
    1c50:	00051c63          	bnez	a0,1c68 
    1c54:	0009a503          	lw	a0,0(s3)
    1c58:	00498993          	addi	s3,s3,4
    1c5c:	fc951ce3          	bne	a0,s1,1c34 
    1c60:	00000513          	li	a0,0
    1c64:	0080006f          	j	1c6c 
    1c68:	00100513          	li	a0,1
    1c6c:	01c12083          	lw	ra,28(sp)
    1c70:	01812403          	lw	s0,24(sp)
    1c74:	01412483          	lw	s1,20(sp)
    1c78:	01012903          	lw	s2,16(sp)
    1c7c:	00c12983          	lw	s3,12(sp)
    1c80:	02010113          	addi	sp,sp,32
    1c84:	00008067          	ret

0000000000001c88 :
    1c88:	fd010113          	addi	sp,sp,-48
    1c8c:	02112623          	sw	ra,44(sp)
    1c90:	02812423          	sw	s0,40(sp)
    1c94:	02912223          	sw	s1,36(sp)
    1c98:	03212023          	sw	s2,32(sp)
    1c9c:	01312e23          	sw	s3,28(sp)
    1ca0:	01412c23          	sw	s4,24(sp)
    1ca4:	01512a23          	sw	s5,20(sp)
    1ca8:	01612823          	sw	s6,16(sp)
    1cac:	01712623          	sw	s7,12(sp)
    1cb0:	01812423          	sw	s8,8(sp)
    1cb4:	000106b7          	lui	a3,0x10
    1cb8:	0506aa03          	lw	s4,80(a3) # 10050 
    1cbc:	000106b7          	lui	a3,0x10
    1cc0:	0246a403          	lw	s0,36(a3) # 10024 
    1cc4:	000106b7          	lui	a3,0x10
    1cc8:	05c6aa83          	lw	s5,92(a3) # 1005c 
    1ccc:	002ec6b7          	lui	a3,0x2ec
    1cd0:	7b06a787          	flw	fa5,1968(a3) # 2ec7b0 
    1cd4:	00f12227          	fsw	fa5,4(sp)
    1cd8:	00060493          	mv	s1,a2
    1cdc:	00058913          	mv	s2,a1
    1ce0:	00050993          	mv	s3,a0
    1ce4:	06300b13          	li	s6,99
    1ce8:	fff00b93          	li	s7,-1
    1cec:	0080006f          	j	1cf4 
    1cf0:	00198993          	addi	s3,s3,1
    1cf4:	00299513          	slli	a0,s3,0x2
    1cf8:	00a90533          	add	a0,s2,a0
    1cfc:	00052c03          	lw	s8,0(a0)
    1d00:	000c2503          	lw	a0,0(s8)
    1d04:	07650263          	beq	a0,s6,1d68 
    1d08:	0d750863          	beq	a0,s7,1dd8 
    1d0c:	00040593          	mv	a1,s0
    1d10:	00048613          	mv	a2,s1
    1d14:	facff0ef          	jal	ra,14c0 
    1d18:	fc050ce3          	beqz	a0,1cf0 
    1d1c:	000aa787          	flw	fa5,0(s5)
    1d20:	00412707          	flw	fa4,4(sp)
    1d24:	a0f70553          	fle.s	a0,fa4,fa5
    1d28:	fc0514e3          	bnez	a0,1cf0 
    1d2c:	004c2503          	lw	a0,4(s8)
    1d30:	fd7500e3          	beq	a0,s7,1cf0 
    1d34:	008c0c13          	addi	s8,s8,8
    1d38:	00251513          	slli	a0,a0,0x2
    1d3c:	00aa0533          	add	a0,s4,a0
    1d40:	00052583          	lw	a1,0(a0)
    1d44:	00000513          	li	a0,0
    1d48:	00048613          	mv	a2,s1
    1d4c:	cddff0ef          	jal	ra,1a28 
    1d50:	0ff57513          	andi	a0,a0,255
    1d54:	04051863          	bnez	a0,1da4 
    1d58:	000c2503          	lw	a0,0(s8)
    1d5c:	004c0c13          	addi	s8,s8,4
    1d60:	fd751ce3          	bne	a0,s7,1d38 
    1d64:	f8dff06f          	j	1cf0 
    1d68:	004c2503          	lw	a0,4(s8)
    1d6c:	f97502e3          	beq	a0,s7,1cf0 
    1d70:	008c0c13          	addi	s8,s8,8
    1d74:	00251513          	slli	a0,a0,0x2
    1d78:	00aa0533          	add	a0,s4,a0
    1d7c:	00052583          	lw	a1,0(a0)
    1d80:	00000513          	li	a0,0
    1d84:	00048613          	mv	a2,s1
    1d88:	ca1ff0ef          	jal	ra,1a28 
    1d8c:	0ff57513          	andi	a0,a0,255
    1d90:	00051a63          	bnez	a0,1da4 
    1d94:	000c2503          	lw	a0,0(s8)
    1d98:	004c0c13          	addi	s8,s8,4
    1d9c:	fd751ce3          	bne	a0,s7,1d74 
    1da0:	f51ff06f          	j	1cf0 
    1da4:	00100513          	li	a0,1
    1da8:	02c12083          	lw	ra,44(sp)
    1dac:	02812403          	lw	s0,40(sp)
    1db0:	02412483          	lw	s1,36(sp)
    1db4:	02012903          	lw	s2,32(sp)
    1db8:	01c12983          	lw	s3,28(sp)
    1dbc:	01812a03          	lw	s4,24(sp)
    1dc0:	01412a83          	lw	s5,20(sp)
    1dc4:	01012b03          	lw	s6,16(sp)
    1dc8:	00c12b83          	lw	s7,12(sp)
    1dcc:	00812c03          	lw	s8,8(sp)
    1dd0:	03010113          	addi	sp,sp,48
    1dd4:	00008067          	ret
    1dd8:	00000513          	li	a0,0
    1ddc:	fcdff06f          	j	1da8 

0000000000001de0 :
    1de0:	fa010113          	addi	sp,sp,-96
    1de4:	04112e23          	sw	ra,92(sp)
    1de8:	04812c23          	sw	s0,88(sp)
    1dec:	04912a23          	sw	s1,84(sp)
    1df0:	05212823          	sw	s2,80(sp)
    1df4:	05312623          	sw	s3,76(sp)
    1df8:	05412423          	sw	s4,72(sp)
    1dfc:	05512223          	sw	s5,68(sp)
    1e00:	05612023          	sw	s6,64(sp)
    1e04:	03712e23          	sw	s7,60(sp)
    1e08:	03812c23          	sw	s8,56(sp)
    1e0c:	03912a23          	sw	s9,52(sp)
    1e10:	03a12823          	sw	s10,48(sp)
    1e14:	03b12623          	sw	s11,44(sp)
    1e18:	00050493          	mv	s1,a0
    1e1c:	00251513          	slli	a0,a0,0x2
    1e20:	00a58533          	add	a0,a1,a0
    1e24:	00052a03          	lw	s4,0(a0)
    1e28:	fff00b13          	li	s6,-1
    1e2c:	1f6a0663          	beq	s4,s6,2018 
    1e30:	00058413          	mv	s0,a1
    1e34:	00010537          	lui	a0,0x10
    1e38:	06052903          	lw	s2,96(a0) # 10060 
    1e3c:	00010537          	lui	a0,0x10
    1e40:	08852983          	lw	s3,136(a0) # 10088 
    1e44:	00010537          	lui	a0,0x10
    1e48:	05c52b83          	lw	s7,92(a0) # 1005c 
    1e4c:	00010537          	lui	a0,0x10
    1e50:	07052503          	lw	a0,112(a0) # 10070 
    1e54:	02a12223          	sw	a0,36(sp)
    1e58:	00010537          	lui	a0,0x10
    1e5c:	09c52c83          	lw	s9,156(a0) # 1009c 
    1e60:	00010537          	lui	a0,0x10
    1e64:	00052d03          	lw	s10,0(a0) # 10000 
    1e68:	00010537          	lui	a0,0x10
    1e6c:	07452503          	lw	a0,116(a0) # 10074 
    1e70:	00a12a23          	sw	a0,20(sp)
    1e74:	00010537          	lui	a0,0x10
    1e78:	06852503          	lw	a0,104(a0) # 10068 
    1e7c:	00a12823          	sw	a0,16(sp)
    1e80:	00010537          	lui	a0,0x10
    1e84:	07c52503          	lw	a0,124(a0) # 1007c 
    1e88:	00a12623          	sw	a0,12(sp)
    1e8c:	00010537          	lui	a0,0x10
    1e90:	08452d83          	lw	s11,132(a0) # 10084 
    1e94:	002ec537          	lui	a0,0x2ec
    1e98:	7b452787          	flw	fa5,1972(a0) # 2ec7b4 
    1e9c:	02f12427          	fsw	fa5,40(sp)
    1ea0:	002ec537          	lui	a0,0x2ec
    1ea4:	7b852787          	flw	fa5,1976(a0) # 2ec7b8 
    1ea8:	00f12e27          	fsw	fa5,28(sp)
    1eac:	00458513          	addi	a0,a1,4
    1eb0:	00a12c23          	sw	a0,24(sp)
    1eb4:	000a0513          	mv	a0,s4
    1eb8:	00090593          	mv	a1,s2
    1ebc:	00098613          	mv	a2,s3
    1ec0:	e00ff0ef          	jal	ra,14c0 
    1ec4:	10050663          	beqz	a0,1fd0 
    1ec8:	00050a93          	mv	s5,a0
    1ecc:	000ba787          	flw	fa5,0(s7)
    1ed0:	02812707          	flw	fa4,40(sp)
    1ed4:	a0f71553          	flt.s	a0,fa4,fa5
    1ed8:	10050e63          	beqz	a0,1ff4 
    1edc:	02412503          	lw	a0,36(sp)
    1ee0:	00052707          	flw	fa4,0(a0)
    1ee4:	a0f70553          	fle.s	a0,fa4,fa5
    1ee8:	10051663          	bnez	a0,1ff4 
    1eec:	00092707          	flw	fa4,0(s2)
    1ef0:	0009a687          	flw	fa3,0(s3)
    1ef4:	01c12607          	flw	fa2,28(sp)
    1ef8:	00c7f653          	fadd.s	fa2,fa5,fa2
    1efc:	10e677d3          	fmul.s	fa5,fa2,fa4
    1f00:	00d7f7d3          	fadd.s	fa5,fa5,fa3
    1f04:	00fca027          	fsw	fa5,0(s9)
    1f08:	00492787          	flw	fa5,4(s2)
    1f0c:	0049a707          	flw	fa4,4(s3)
    1f10:	10f677d3          	fmul.s	fa5,fa2,fa5
    1f14:	00e7f7d3          	fadd.s	fa5,fa5,fa4
    1f18:	00fca227          	fsw	fa5,4(s9)
    1f1c:	00892787          	flw	fa5,8(s2)
    1f20:	0089a707          	flw	fa4,8(s3)
    1f24:	02c12027          	fsw	fa2,32(sp)
    1f28:	10f677d3          	fmul.s	fa5,fa2,fa5
    1f2c:	00e7f7d3          	fadd.s	fa5,fa5,fa4
    1f30:	00fca427          	fsw	fa5,8(s9)
    1f34:	00042503          	lw	a0,0(s0)
    1f38:	01812c03          	lw	s8,24(sp)
    1f3c:	05650c63          	beq	a0,s6,1f94 
    1f40:	02800593          	li	a1,40
    1f44:	a6cfe0ef          	jal	ra,1b0 <__mulsi3>
    1f48:	00ad0833          	add	a6,s10,a0
    1f4c:	01c82883          	lw	a7,28(a6)
    1f50:	01482783          	lw	a5,20(a6)
    1f54:	01082703          	lw	a4,16(a6)
    1f58:	00c82683          	lw	a3,12(a6)
    1f5c:	00882603          	lw	a2,8(a6)
    1f60:	00482583          	lw	a1,4(a6)
    1f64:	00082503          	lw	a0,0(a6)
    1f68:	02082283          	lw	t0,32(a6)
    1f6c:	02482303          	lw	t1,36(a6)
    1f70:	01884803          	lbu	a6,24(a6)
    1f74:	00612223          	sw	t1,4(sp)
    1f78:	00512023          	sw	t0,0(sp)
    1f7c:	845ff0ef          	jal	ra,17c0 
    1f80:	00157513          	andi	a0,a0,1
    1f84:	06051863          	bnez	a0,1ff4 
    1f88:	000c2503          	lw	a0,0(s8)
    1f8c:	004c0c13          	addi	s8,s8,4
    1f90:	fb6518e3          	bne	a0,s6,1f40 
    1f94:	02412503          	lw	a0,36(sp)
    1f98:	02012787          	flw	fa5,32(sp)
    1f9c:	00f52027          	fsw	fa5,0(a0)
    1fa0:	000ca787          	flw	fa5,0(s9)
    1fa4:	01412503          	lw	a0,20(sp)
    1fa8:	00f52027          	fsw	fa5,0(a0)
    1fac:	004ca787          	flw	fa5,4(s9)
    1fb0:	00f52227          	fsw	fa5,4(a0)
    1fb4:	008ca787          	flw	fa5,8(s9)
    1fb8:	00f52427          	fsw	fa5,8(a0)
    1fbc:	01012503          	lw	a0,16(sp)
    1fc0:	01552023          	sw	s5,0(a0)
    1fc4:	00c12503          	lw	a0,12(sp)
    1fc8:	01452023          	sw	s4,0(a0)
    1fcc:	0280006f          	j	1ff4 
    1fd0:	02800593          	li	a1,40
    1fd4:	000a0513          	mv	a0,s4
    1fd8:	9d8fe0ef          	jal	ra,1b0 <__mulsi3>
    1fdc:	00ad0533          	add	a0,s10,a0
    1fe0:	01854503          	lbu	a0,24(a0)
    1fe4:	00157513          	andi	a0,a0,1
    1fe8:	00051663          	bnez	a0,1ff4 
    1fec:	00100513          	li	a0,1
    1ff0:	00ad8023          	sb	a0,0(s11)
    1ff4:	000dc503          	lbu	a0,0(s11)
    1ff8:	7d8010ef          	jal	ra,37d0 
    1ffc:	00157513          	andi	a0,a0,1
    2000:	00050c63          	beqz	a0,2018 
    2004:	00148493          	addi	s1,s1,1
    2008:	00249513          	slli	a0,s1,0x2
    200c:	00a40533          	add	a0,s0,a0
    2010:	00052a03          	lw	s4,0(a0)
    2014:	eb6a10e3          	bne	s4,s6,1eb4 
    2018:	05c12083          	lw	ra,92(sp)
    201c:	05812403          	lw	s0,88(sp)
    2020:	05412483          	lw	s1,84(sp)
    2024:	05012903          	lw	s2,80(sp)
    2028:	04c12983          	lw	s3,76(sp)
    202c:	04812a03          	lw	s4,72(sp)
    2030:	04412a83          	lw	s5,68(sp)
    2034:	04012b03          	lw	s6,64(sp)
    2038:	03c12b83          	lw	s7,60(sp)
    203c:	03812c03          	lw	s8,56(sp)
    2040:	03412c83          	lw	s9,52(sp)
    2044:	03012d03          	lw	s10,48(sp)
    2048:	02c12d83          	lw	s11,44(sp)
    204c:	06010113          	addi	sp,sp,96
    2050:	00008067          	ret

0000000000002054 :
    2054:	fe010113          	addi	sp,sp,-32
    2058:	00112e23          	sw	ra,28(sp)
    205c:	00812c23          	sw	s0,24(sp)
    2060:	00912a23          	sw	s1,20(sp)
    2064:	01212823          	sw	s2,16(sp)
    2068:	01312623          	sw	s3,12(sp)
    206c:	00251513          	slli	a0,a0,0x2
    2070:	00a585b3          	add	a1,a1,a0
    2074:	0005a503          	lw	a0,0(a1)
    2078:	fff00413          	li	s0,-1
    207c:	02850e63          	beq	a0,s0,20b8 
    2080:	00010637          	lui	a2,0x10
    2084:	05062483          	lw	s1,80(a2) # 10050 
    2088:	00010637          	lui	a2,0x10
    208c:	08462903          	lw	s2,132(a2) # 10084 
    2090:	00458993          	addi	s3,a1,4
    2094:	00251513          	slli	a0,a0,0x2
    2098:	00a48533          	add	a0,s1,a0
    209c:	00052583          	lw	a1,0(a0)
    20a0:	00090023          	sb	zero,0(s2)
    20a4:	00000513          	li	a0,0
    20a8:	d39ff0ef          	jal	ra,1de0 
    20ac:	0009a503          	lw	a0,0(s3)
    20b0:	00498993          	addi	s3,s3,4
    20b4:	fe8510e3          	bne	a0,s0,2094 
    20b8:	01c12083          	lw	ra,28(sp)
    20bc:	01812403          	lw	s0,24(sp)
    20c0:	01412483          	lw	s1,20(sp)
    20c4:	01012903          	lw	s2,16(sp)
    20c8:	00c12983          	lw	s3,12(sp)
    20cc:	02010113          	addi	sp,sp,32
    20d0:	00008067          	ret

00000000000020d4 :
    20d4:	fd010113          	addi	sp,sp,-48
    20d8:	02112623          	sw	ra,44(sp)
    20dc:	02812423          	sw	s0,40(sp)
    20e0:	02912223          	sw	s1,36(sp)
    20e4:	03212023          	sw	s2,32(sp)
    20e8:	01312e23          	sw	s3,28(sp)
    20ec:	01412c23          	sw	s4,24(sp)
    20f0:	01512a23          	sw	s5,20(sp)
    20f4:	01612823          	sw	s6,16(sp)
    20f8:	01712623          	sw	s7,12(sp)
    20fc:	01812423          	sw	s8,8(sp)
    2100:	01912223          	sw	s9,4(sp)
    2104:	01a12023          	sw	s10,0(sp)
    2108:	00010637          	lui	a2,0x10
    210c:	05062a03          	lw	s4,80(a2) # 10050 
    2110:	00010637          	lui	a2,0x10
    2114:	08462a83          	lw	s5,132(a2) # 10084 
    2118:	00010637          	lui	a2,0x10
    211c:	06062403          	lw	s0,96(a2) # 10060 
    2120:	00010637          	lui	a2,0x10
    2124:	08862483          	lw	s1,136(a2) # 10088 
    2128:	00010637          	lui	a2,0x10
    212c:	05c62b03          	lw	s6,92(a2) # 1005c 
    2130:	00010637          	lui	a2,0x10
    2134:	07062b83          	lw	s7,112(a2) # 10070 
    2138:	00058913          	mv	s2,a1
    213c:	00050993          	mv	s3,a0
    2140:	06300c13          	li	s8,99
    2144:	fff00c93          	li	s9,-1
    2148:	0080006f          	j	2150 
    214c:	00198993          	addi	s3,s3,1
    2150:	00299513          	slli	a0,s3,0x2
    2154:	00a90533          	add	a0,s2,a0
    2158:	00052d03          	lw	s10,0(a0)
    215c:	000d2503          	lw	a0,0(s10)
    2160:	05850e63          	beq	a0,s8,21bc 
    2164:	09950663          	beq	a0,s9,21f0 
    2168:	00040593          	mv	a1,s0
    216c:	00048613          	mv	a2,s1
    2170:	b50ff0ef          	jal	ra,14c0 
    2174:	fc050ce3          	beqz	a0,214c 
    2178:	000b2787          	flw	fa5,0(s6)
    217c:	000ba707          	flw	fa4,0(s7)
    2180:	a0f70553          	fle.s	a0,fa4,fa5
    2184:	fc0514e3          	bnez	a0,214c 
    2188:	004d2503          	lw	a0,4(s10)
    218c:	fd9500e3          	beq	a0,s9,214c 
    2190:	008d0d13          	addi	s10,s10,8
    2194:	00251513          	slli	a0,a0,0x2
    2198:	00aa0533          	add	a0,s4,a0
    219c:	00052583          	lw	a1,0(a0)
    21a0:	000a8023          	sb	zero,0(s5)
    21a4:	00000513          	li	a0,0
    21a8:	c39ff0ef          	jal	ra,1de0 
    21ac:	000d2503          	lw	a0,0(s10)
    21b0:	004d0d13          	addi	s10,s10,4
    21b4:	ff9510e3          	bne	a0,s9,2194 
    21b8:	f95ff06f          	j	214c 
    21bc:	004d2503          	lw	a0,4(s10)
    21c0:	f99506e3          	beq	a0,s9,214c 
    21c4:	008d0d13          	addi	s10,s10,8
    21c8:	00251513          	slli	a0,a0,0x2
    21cc:	00aa0533          	add	a0,s4,a0
    21d0:	00052583          	lw	a1,0(a0)
    21d4:	000a8023          	sb	zero,0(s5)
    21d8:	00000513          	li	a0,0
    21dc:	c05ff0ef          	jal	ra,1de0 
    21e0:	000d2503          	lw	a0,0(s10)
    21e4:	004d0d13          	addi	s10,s10,4
    21e8:	ff9510e3          	bne	a0,s9,21c8 
    21ec:	f61ff06f          	j	214c 
    21f0:	02c12083          	lw	ra,44(sp)
    21f4:	02812403          	lw	s0,40(sp)
    21f8:	02412483          	lw	s1,36(sp)
    21fc:	02012903          	lw	s2,32(sp)
    2200:	01c12983          	lw	s3,28(sp)
    2204:	01812a03          	lw	s4,24(sp)
    2208:	01412a83          	lw	s5,20(sp)
    220c:	01012b03          	lw	s6,16(sp)
    2210:	00c12b83          	lw	s7,12(sp)
    2214:	00812c03          	lw	s8,8(sp)
    2218:	00412c83          	lw	s9,4(sp)
    221c:	00012d03          	lw	s10,0(sp)
    2220:	03010113          	addi	sp,sp,48
    2224:	00008067          	ret

0000000000002228 :
    2228:	ff010113          	addi	sp,sp,-16
    222c:	00112623          	sw	ra,12(sp)
    2230:	00812423          	sw	s0,8(sp)
    2234:	00010537          	lui	a0,0x10
    2238:	07052403          	lw	s0,112(a0) # 10070 
    223c:	00010537          	lui	a0,0x10
    2240:	05452503          	lw	a0,84(a0) # 10054 
    2244:	4e6e75b7          	lui	a1,0x4e6e7
    2248:	b2858593          	addi	a1,a1,-1240 # 4e6e6b28 <_sstack+0x4e3f8dfc>
    224c:	00b42023          	sw	a1,0(s0)
    2250:	00052583          	lw	a1,0(a0)
    2254:	00000513          	li	a0,0
    2258:	e7dff0ef          	jal	ra,20d4 
    225c:	00042787          	flw	fa5,0(s0)
    2260:	002ec537          	lui	a0,0x2ec
    2264:	7bc52707          	flw	fa4,1980(a0) # 2ec7bc 
    2268:	002ec537          	lui	a0,0x2ec
    226c:	7c052687          	flw	fa3,1984(a0) # 2ec7c0 
    2270:	a0f71553          	flt.s	a0,fa4,fa5
    2274:	a0d795d3          	flt.s	a1,fa5,fa3
    2278:	00b57533          	and	a0,a0,a1
    227c:	00c12083          	lw	ra,12(sp)
    2280:	00812403          	lw	s0,8(sp)
    2284:	01010113          	addi	sp,sp,16
    2288:	00008067          	ret

000000000000228c :
    228c:	00010537          	lui	a0,0x10
    2290:	06852503          	lw	a0,104(a0) # 10068 
    2294:	00052503          	lw	a0,0(a0)
    2298:	00300593          	li	a1,3
    229c:	06b50063          	beq	a0,a1,22fc 
    22a0:	00200593          	li	a1,2
    22a4:	02b50663          	beq	a0,a1,22d0 
    22a8:	00100593          	li	a1,1
    22ac:	0cb51263          	bne	a0,a1,2370 
    22b0:	00010537          	lui	a0,0x10
    22b4:	06052503          	lw	a0,96(a0) # 10060 
    22b8:	00052707          	flw	fa4,0(a0)
    22bc:	f00007d3          	fmv.w.x	fa5,zero
    22c0:	a0e79553          	flt.s	a0,fa5,fa4
    22c4:	08051663          	bnez	a0,2350 
    22c8:	bf800537          	lui	a0,0xbf800
    22cc:	0880006f          	j	2354 
    22d0:	00010537          	lui	a0,0x10
    22d4:	08c52503          	lw	a0,140(a0) # 1008c 
    22d8:	000105b7          	lui	a1,0x10
    22dc:	0605a583          	lw	a1,96(a1) # 10060 
    22e0:	00052023          	sw	zero,0(a0)
    22e4:	0045a707          	flw	fa4,4(a1)
    22e8:	f00007d3          	fmv.w.x	fa5,zero
    22ec:	a0e795d3          	flt.s	a1,fa5,fa4
    22f0:	02059e63          	bnez	a1,232c 
    22f4:	bf8005b7          	lui	a1,0xbf800
    22f8:	0380006f          	j	2330 
    22fc:	00010537          	lui	a0,0x10
    2300:	08c52503          	lw	a0,140(a0) # 1008c 
    2304:	000105b7          	lui	a1,0x10
    2308:	0605a583          	lw	a1,96(a1) # 10060 
    230c:	00052023          	sw	zero,0(a0)
    2310:	00052223          	sw	zero,4(a0)
    2314:	0085a787          	flw	fa5,8(a1)
    2318:	f0000753          	fmv.w.x	fa4,zero
    231c:	a0f715d3          	flt.s	a1,fa4,fa5
    2320:	02059063          	bnez	a1,2340 
    2324:	bf8005b7          	lui	a1,0xbf800
    2328:	01c0006f          	j	2344 
    232c:	3f8005b7          	lui	a1,0x3f800
    2330:	f0058753          	fmv.w.x	fa4,a1
    2334:	20e71753          	fneg.s	fa4,fa4
    2338:	00e52227          	fsw	fa4,4(a0)
    233c:	0300006f          	j	236c 
    2340:	3f8005b7          	lui	a1,0x3f800
    2344:	f00587d3          	fmv.w.x	fa5,a1
    2348:	20f797d3          	fneg.s	fa5,fa5
    234c:	0200006f          	j	236c 
    2350:	3f800537          	lui	a0,0x3f800
    2354:	f0050753          	fmv.w.x	fa4,a0
    2358:	00010537          	lui	a0,0x10
    235c:	08c52503          	lw	a0,140(a0) # 1008c 
    2360:	20e71753          	fneg.s	fa4,fa4
    2364:	00e52027          	fsw	fa4,0(a0)
    2368:	00052223          	sw	zero,4(a0)
    236c:	00f52427          	fsw	fa5,8(a0)
    2370:	00008067          	ret

0000000000002374 :
    2374:	00072787          	flw	fa5,0(a4)
    2378:	00010537          	lui	a0,0x10
    237c:	08c52503          	lw	a0,140(a0) # 1008c 
    2380:	20f797d3          	fneg.s	fa5,fa5
    2384:	00f52027          	fsw	fa5,0(a0)
    2388:	00472787          	flw	fa5,4(a4)
    238c:	20f797d3          	fneg.s	fa5,fa5
    2390:	00f52227          	fsw	fa5,4(a0)
    2394:	00872787          	flw	fa5,8(a4)
    2398:	20f797d3          	fneg.s	fa5,fa5
    239c:	00f52427          	fsw	fa5,8(a0)
    23a0:	00008067          	ret

00000000000023a4 :
    23a4:	ff010113          	addi	sp,sp,-16
    23a8:	00112623          	sw	ra,12(sp)
    23ac:	00812423          	sw	s0,8(sp)
    23b0:	00912223          	sw	s1,4(sp)
    23b4:	01812503          	lw	a0,24(sp)
    23b8:	00052787          	flw	fa5,0(a0)
    23bc:	0007a707          	flw	fa4,0(a5)
    23c0:	00072687          	flw	fa3,0(a4)
    23c4:	000105b7          	lui	a1,0x10
    23c8:	08c5a483          	lw	s1,140(a1) # 1008c 
    23cc:	08e7f7d3          	fsub.s	fa5,fa5,fa4
    23d0:	10d7f7d3          	fmul.s	fa5,fa5,fa3
    23d4:	00f4a027          	fsw	fa5,0(s1)
    23d8:	00452707          	flw	fa4,4(a0)
    23dc:	0047a687          	flw	fa3,4(a5)
    23e0:	00472607          	flw	fa2,4(a4)
    23e4:	08d77753          	fsub.s	fa4,fa4,fa3
    23e8:	10c77753          	fmul.s	fa4,fa4,fa2
    23ec:	00e4a227          	fsw	fa4,4(s1)
    23f0:	00852687          	flw	fa3,8(a0)
    23f4:	0087a607          	flw	fa2,8(a5)
    23f8:	00872587          	flw	fa1,8(a4)
    23fc:	00080413          	mv	s0,a6
    2400:	08c6f6d3          	fsub.s	fa3,fa3,fa2
    2404:	10b6f6d3          	fmul.s	fa3,fa3,fa1
    2408:	00d4a427          	fsw	fa3,8(s1)
    240c:	10f7f7d3          	fmul.s	fa5,fa5,fa5
    2410:	10e77753          	fmul.s	fa4,fa4,fa4
    2414:	00e7f7d3          	fadd.s	fa5,fa5,fa4
    2418:	10d6f753          	fmul.s	fa4,fa3,fa3
    241c:	00e7f7d3          	fadd.s	fa5,fa5,fa4
    2420:	e0078553          	fmv.x.w	a0,fa5
    2424:	14d010ef          	jal	ra,3d70 
    2428:	00147413          	andi	s0,s0,1
    242c:	f00507d3          	fmv.w.x	fa5,a0
    2430:	00040463          	beqz	s0,2438 
    2434:	20f797d3          	fneg.s	fa5,fa5
    2438:	0004a707          	flw	fa4,0(s1)
    243c:	0044a687          	flw	fa3,4(s1)
    2440:	18f77753          	fdiv.s	fa4,fa4,fa5
    2444:	0084a607          	flw	fa2,8(s1)
    2448:	00e4a027          	fsw	fa4,0(s1)
    244c:	18f6f753          	fdiv.s	fa4,fa3,fa5
    2450:	00e4a227          	fsw	fa4,4(s1)
    2454:	18f677d3          	fdiv.s	fa5,fa2,fa5
    2458:	00f4a427          	fsw	fa5,8(s1)
    245c:	00c12083          	lw	ra,12(sp)
    2460:	00812403          	lw	s0,8(sp)
    2464:	00412483          	lw	s1,4(sp)
    2468:	01010113          	addi	sp,sp,16
    246c:	00008067          	ret

0000000000002470 :
    2470:	ff010113          	addi	sp,sp,-16
    2474:	00112623          	sw	ra,12(sp)
    2478:	00812423          	sw	s0,8(sp)
    247c:	00912223          	sw	s1,4(sp)
    2480:	01812503          	lw	a0,24(sp)
    2484:	00052787          	flw	fa5,0(a0)
    2488:	0007a707          	flw	fa4,0(a5)
    248c:	000105b7          	lui	a1,0x10
    2490:	0a45a583          	lw	a1,164(a1) # 100a4 
    2494:	08e7f7d3          	fsub.s	fa5,fa5,fa4
    2498:	00f5a027          	fsw	fa5,0(a1)
    249c:	00452707          	flw	fa4,4(a0)
    24a0:	0047a687          	flw	fa3,4(a5)
    24a4:	08d77753          	fsub.s	fa4,fa4,fa3
    24a8:	00e5a227          	fsw	fa4,4(a1)
    24ac:	00852687          	flw	fa3,8(a0)
    24b0:	0087a607          	flw	fa2,8(a5)
    24b4:	01412503          	lw	a0,20(sp)
    24b8:	08c6f6d3          	fsub.s	fa3,fa3,fa2
    24bc:	00d5a427          	fsw	fa3,8(a1)
    24c0:	00072607          	flw	fa2,0(a4)
    24c4:	00852587          	flw	fa1,8(a0)
    24c8:	00452507          	flw	fa0,4(a0)
    24cc:	10c7f7d3          	fmul.s	fa5,fa5,fa2
    24d0:	10b77753          	fmul.s	fa4,fa4,fa1
    24d4:	10a6f6d3          	fmul.s	fa3,fa3,fa0
    24d8:	00d77753          	fadd.s	fa4,fa4,fa3
    24dc:	3f000637          	lui	a2,0x3f000
    24e0:	000106b7          	lui	a3,0x10
    24e4:	08c6a483          	lw	s1,140(a3) # 1008c 
    24e8:	f00606d3          	fmv.w.x	fa3,a2
    24ec:	10d77753          	fmul.s	fa4,fa4,fa3
    24f0:	00e7f7d3          	fadd.s	fa5,fa5,fa4
    24f4:	00f4a027          	fsw	fa5,0(s1)
    24f8:	0045a707          	flw	fa4,4(a1)
    24fc:	00472607          	flw	fa2,4(a4)
    2500:	0005a587          	flw	fa1,0(a1)
    2504:	00852507          	flw	fa0,8(a0)
    2508:	0085a007          	flw	ft0,8(a1)
    250c:	00052087          	flw	ft1,0(a0)
    2510:	10c77753          	fmul.s	fa4,fa4,fa2
    2514:	10a5f653          	fmul.s	fa2,fa1,fa0
    2518:	101075d3          	fmul.s	fa1,ft0,ft1
    251c:	00b67653          	fadd.s	fa2,fa2,fa1
    2520:	10d67653          	fmul.s	fa2,fa2,fa3
    2524:	00c77753          	fadd.s	fa4,fa4,fa2
    2528:	00e4a227          	fsw	fa4,4(s1)
    252c:	0085a607          	flw	fa2,8(a1)
    2530:	00872587          	flw	fa1,8(a4)
    2534:	0005a507          	flw	fa0,0(a1)
    2538:	00452007          	flw	ft0,4(a0)
    253c:	0045a087          	flw	ft1,4(a1)
    2540:	00052107          	flw	ft2,0(a0)
    2544:	00080413          	mv	s0,a6
    2548:	10b67653          	fmul.s	fa2,fa2,fa1
    254c:	100575d3          	fmul.s	fa1,fa0,ft0
    2550:	1020f553          	fmul.s	fa0,ft1,ft2
    2554:	00a5f5d3          	fadd.s	fa1,fa1,fa0
    2558:	10d5f6d3          	fmul.s	fa3,fa1,fa3
    255c:	00d676d3          	fadd.s	fa3,fa2,fa3
    2560:	00d4a427          	fsw	fa3,8(s1)
    2564:	10f7f7d3          	fmul.s	fa5,fa5,fa5
    2568:	10e77753          	fmul.s	fa4,fa4,fa4
    256c:	00e7f7d3          	fadd.s	fa5,fa5,fa4
    2570:	10d6f753          	fmul.s	fa4,fa3,fa3
    2574:	00e7f7d3          	fadd.s	fa5,fa5,fa4
    2578:	e0078553          	fmv.x.w	a0,fa5
    257c:	7f4010ef          	jal	ra,3d70 
    2580:	00147413          	andi	s0,s0,1
    2584:	f00507d3          	fmv.w.x	fa5,a0
    2588:	00040463          	beqz	s0,2590 
    258c:	20f797d3          	fneg.s	fa5,fa5
    2590:	0004a707          	flw	fa4,0(s1)
    2594:	0044a687          	flw	fa3,4(s1)
    2598:	18f77753          	fdiv.s	fa4,fa4,fa5
    259c:	0084a607          	flw	fa2,8(s1)
    25a0:	00e4a027          	fsw	fa4,0(s1)
    25a4:	18f6f753          	fdiv.s	fa4,fa3,fa5
    25a8:	00e4a227          	fsw	fa4,4(s1)
    25ac:	18f677d3          	fdiv.s	fa5,fa2,fa5
    25b0:	00f4a427          	fsw	fa5,8(s1)
    25b4:	00c12083          	lw	ra,12(sp)
    25b8:	00812403          	lw	s0,8(sp)
    25bc:	00412483          	lw	s1,4(sp)
    25c0:	01010113          	addi	sp,sp,16
    25c4:	00008067          	ret

00000000000025c8 :
    25c8:	ff010113          	addi	sp,sp,-16
    25cc:	00112623          	sw	ra,12(sp)
    25d0:	00812423          	sw	s0,8(sp)
    25d4:	00912223          	sw	s1,4(sp)
    25d8:	00200513          	li	a0,2
    25dc:	04a58863          	beq	a1,a0,262c 
    25e0:	00100513          	li	a0,1
    25e4:	06a59c63          	bne	a1,a0,265c 
    25e8:	00010537          	lui	a0,0x10
    25ec:	06852503          	lw	a0,104(a0) # 10068 
    25f0:	00052503          	lw	a0,0(a0)
    25f4:	00300593          	li	a1,3
    25f8:	22b50063          	beq	a0,a1,2818 
    25fc:	00200593          	li	a1,2
    2600:	1eb50663          	beq	a0,a1,27ec 
    2604:	00100593          	li	a1,1
    2608:	1cb51863          	bne	a0,a1,27d8 
    260c:	00010537          	lui	a0,0x10
    2610:	06052503          	lw	a0,96(a0) # 10060 
    2614:	00052707          	flw	fa4,0(a0)
    2618:	f00007d3          	fmv.w.x	fa5,zero
    261c:	a0e79553          	flt.s	a0,fa5,fa4
    2620:	24051463          	bnez	a0,2868 
    2624:	bf800537          	lui	a0,0xbf800
    2628:	2440006f          	j	286c 
    262c:	00072787          	flw	fa5,0(a4)
    2630:	00010537          	lui	a0,0x10
    2634:	08c52503          	lw	a0,140(a0) # 1008c 
    2638:	20f797d3          	fneg.s	fa5,fa5
    263c:	00f52027          	fsw	fa5,0(a0)
    2640:	00472787          	flw	fa5,4(a4)
    2644:	20f797d3          	fneg.s	fa5,fa5
    2648:	00f52227          	fsw	fa5,4(a0)
    264c:	00872787          	flw	fa5,8(a4)
    2650:	20f797d3          	fneg.s	fa5,fa5
    2654:	00f52427          	fsw	fa5,8(a0)
    2658:	1800006f          	j	27d8 
    265c:	00080413          	mv	s0,a6
    2660:	01812503          	lw	a0,24(sp)
    2664:	00052787          	flw	fa5,0(a0)
    2668:	0007a707          	flw	fa4,0(a5)
    266c:	08e7f7d3          	fsub.s	fa5,fa5,fa4
    2670:	0c068a63          	beqz	a3,2744 
    2674:	000105b7          	lui	a1,0x10
    2678:	0a45a583          	lw	a1,164(a1) # 100a4 
    267c:	00f5a027          	fsw	fa5,0(a1)
    2680:	00452707          	flw	fa4,4(a0)
    2684:	0047a687          	flw	fa3,4(a5)
    2688:	08d77753          	fsub.s	fa4,fa4,fa3
    268c:	00e5a227          	fsw	fa4,4(a1)
    2690:	00852687          	flw	fa3,8(a0)
    2694:	0087a607          	flw	fa2,8(a5)
    2698:	01412503          	lw	a0,20(sp)
    269c:	08c6f6d3          	fsub.s	fa3,fa3,fa2
    26a0:	00d5a427          	fsw	fa3,8(a1)
    26a4:	00072607          	flw	fa2,0(a4)
    26a8:	00852587          	flw	fa1,8(a0)
    26ac:	00452507          	flw	fa0,4(a0)
    26b0:	10c7f7d3          	fmul.s	fa5,fa5,fa2
    26b4:	10b77753          	fmul.s	fa4,fa4,fa1
    26b8:	10a6f6d3          	fmul.s	fa3,fa3,fa0
    26bc:	00d77753          	fadd.s	fa4,fa4,fa3
    26c0:	3f000637          	lui	a2,0x3f000
    26c4:	000106b7          	lui	a3,0x10
    26c8:	08c6a483          	lw	s1,140(a3) # 1008c 
    26cc:	f00606d3          	fmv.w.x	fa3,a2
    26d0:	10d77753          	fmul.s	fa4,fa4,fa3
    26d4:	00e7f7d3          	fadd.s	fa5,fa5,fa4
    26d8:	00f4a027          	fsw	fa5,0(s1)
    26dc:	0045a707          	flw	fa4,4(a1)
    26e0:	00472607          	flw	fa2,4(a4)
    26e4:	0005a587          	flw	fa1,0(a1)
    26e8:	00852507          	flw	fa0,8(a0)
    26ec:	0085a007          	flw	ft0,8(a1)
    26f0:	00052087          	flw	ft1,0(a0)
    26f4:	10c77753          	fmul.s	fa4,fa4,fa2
    26f8:	10a5f653          	fmul.s	fa2,fa1,fa0
    26fc:	101075d3          	fmul.s	fa1,ft0,ft1
    2700:	00b67653          	fadd.s	fa2,fa2,fa1
    2704:	10d67653          	fmul.s	fa2,fa2,fa3
    2708:	00c77753          	fadd.s	fa4,fa4,fa2
    270c:	00e4a227          	fsw	fa4,4(s1)
    2710:	0085a607          	flw	fa2,8(a1)
    2714:	00872587          	flw	fa1,8(a4)
    2718:	0005a507          	flw	fa0,0(a1)
    271c:	00452007          	flw	ft0,4(a0)
    2720:	0045a087          	flw	ft1,4(a1)
    2724:	00052107          	flw	ft2,0(a0)
    2728:	10b67653          	fmul.s	fa2,fa2,fa1
    272c:	100575d3          	fmul.s	fa1,fa0,ft0
    2730:	1020f553          	fmul.s	fa0,ft1,ft2
    2734:	00a5f5d3          	fadd.s	fa1,fa1,fa0
    2738:	10d5f6d3          	fmul.s	fa3,fa1,fa3
    273c:	00d676d3          	fadd.s	fa3,fa2,fa3
    2740:	0440006f          	j	2784 
    2744:	00072707          	flw	fa4,0(a4)
    2748:	000105b7          	lui	a1,0x10
    274c:	08c5a483          	lw	s1,140(a1) # 1008c 
    2750:	10e7f7d3          	fmul.s	fa5,fa5,fa4
    2754:	00f4a027          	fsw	fa5,0(s1)
    2758:	00452707          	flw	fa4,4(a0)
    275c:	0047a687          	flw	fa3,4(a5)
    2760:	00472607          	flw	fa2,4(a4)
    2764:	08d77753          	fsub.s	fa4,fa4,fa3
    2768:	10c77753          	fmul.s	fa4,fa4,fa2
    276c:	00e4a227          	fsw	fa4,4(s1)
    2770:	00852687          	flw	fa3,8(a0)
    2774:	0087a607          	flw	fa2,8(a5)
    2778:	00872587          	flw	fa1,8(a4)
    277c:	08c6f6d3          	fsub.s	fa3,fa3,fa2
    2780:	10b6f6d3          	fmul.s	fa3,fa3,fa1
    2784:	00d4a427          	fsw	fa3,8(s1)
    2788:	10f7f7d3          	fmul.s	fa5,fa5,fa5
    278c:	10e77753          	fmul.s	fa4,fa4,fa4
    2790:	00e7f7d3          	fadd.s	fa5,fa5,fa4
    2794:	10d6f753          	fmul.s	fa4,fa3,fa3
    2798:	00e7f7d3          	fadd.s	fa5,fa5,fa4
    279c:	e0078553          	fmv.x.w	a0,fa5
    27a0:	5d0010ef          	jal	ra,3d70 
    27a4:	00147413          	andi	s0,s0,1
    27a8:	f00507d3          	fmv.w.x	fa5,a0
    27ac:	00040463          	beqz	s0,27b4 
    27b0:	20f797d3          	fneg.s	fa5,fa5
    27b4:	0004a707          	flw	fa4,0(s1)
    27b8:	0044a687          	flw	fa3,4(s1)
    27bc:	18f77753          	fdiv.s	fa4,fa4,fa5
    27c0:	0084a607          	flw	fa2,8(s1)
    27c4:	00e4a027          	fsw	fa4,0(s1)
    27c8:	18f6f753          	fdiv.s	fa4,fa3,fa5
    27cc:	00e4a227          	fsw	fa4,4(s1)
    27d0:	18f677d3          	fdiv.s	fa5,fa2,fa5
    27d4:	00f4a427          	fsw	fa5,8(s1)
    27d8:	00c12083          	lw	ra,12(sp)
    27dc:	00812403          	lw	s0,8(sp)
    27e0:	00412483          	lw	s1,4(sp)
    27e4:	01010113          	addi	sp,sp,16
    27e8:	00008067          	ret
    27ec:	00010537          	lui	a0,0x10
    27f0:	08c52503          	lw	a0,140(a0) # 1008c 
    27f4:	000105b7          	lui	a1,0x10
    27f8:	0605a583          	lw	a1,96(a1) # 10060 
    27fc:	00052023          	sw	zero,0(a0)
    2800:	0045a707          	flw	fa4,4(a1)
    2804:	f00007d3          	fmv.w.x	fa5,zero
    2808:	a0e795d3          	flt.s	a1,fa5,fa4
    280c:	02059e63          	bnez	a1,2848 
    2810:	bf8005b7          	lui	a1,0xbf800
    2814:	0380006f          	j	284c 
    2818:	00010537          	lui	a0,0x10
    281c:	08c52503          	lw	a0,140(a0) # 1008c 
    2820:	000105b7          	lui	a1,0x10
    2824:	0605a583          	lw	a1,96(a1) # 10060 
    2828:	00052023          	sw	zero,0(a0)
    282c:	00052223          	sw	zero,4(a0)
    2830:	0085a787          	flw	fa5,8(a1)
    2834:	f0000753          	fmv.w.x	fa4,zero
    2838:	a0f715d3          	flt.s	a1,fa4,fa5
    283c:	02059063          	bnez	a1,285c 
    2840:	bf8005b7          	lui	a1,0xbf800
    2844:	01c0006f          	j	2860 
    2848:	3f8005b7          	lui	a1,0x3f800
    284c:	f0058753          	fmv.w.x	fa4,a1
    2850:	20e71753          	fneg.s	fa4,fa4
    2854:	00e52227          	fsw	fa4,4(a0)
    2858:	dfdff06f          	j	2654 
    285c:	3f8005b7          	lui	a1,0x3f800
    2860:	f00587d3          	fmv.w.x	fa5,a1
    2864:	dedff06f          	j	2650 
    2868:	3f800537          	lui	a0,0x3f800
    286c:	f0050753          	fmv.w.x	fa4,a0
    2870:	00010537          	lui	a0,0x10
    2874:	08c52503          	lw	a0,140(a0) # 1008c 
    2878:	20e71753          	fneg.s	fa4,fa4
    287c:	00e52027          	fsw	fa4,0(a0)
    2880:	00052223          	sw	zero,4(a0)
    2884:	dd1ff06f          	j	2654 

0000000000002888 :
    2888:	fc010113          	addi	sp,sp,-64
    288c:	02112e23          	sw	ra,60(sp)
    2890:	02812c23          	sw	s0,56(sp)
    2894:	02912a23          	sw	s1,52(sp)
    2898:	03212823          	sw	s2,48(sp)
    289c:	03312623          	sw	s3,44(sp)
    28a0:	03412423          	sw	s4,40(sp)
    28a4:	03512223          	sw	s5,36(sp)
    28a8:	04012583          	lw	a1,64(sp)
    28ac:	0005a787          	flw	fa5,0(a1) # 3f800000 <_sstack+0x3f5122d4>
    28b0:	00010637          	lui	a2,0x10
    28b4:	09462983          	lw	s3,148(a2) # 10094 
    28b8:	00f9a027          	fsw	fa5,0(s3)
    28bc:	0045a787          	flw	fa5,4(a1)
    28c0:	00f9a227          	fsw	fa5,4(s3)
    28c4:	0085a787          	flw	fa5,8(a1)
    28c8:	04812a03          	lw	s4,72(sp)
    28cc:	00078413          	mv	s0,a5
    28d0:	00200593          	li	a1,2
    28d4:	00f9a427          	fsw	fa5,8(s3)
    28d8:	04a5ce63          	blt	a1,a0,2934 
    28dc:	00100593          	li	a1,1
    28e0:	22b50663          	beq	a0,a1,2b0c 
    28e4:	00200593          	li	a1,2
    28e8:	36b51e63          	bne	a0,a1,2c64 
    28ec:	004a2787          	flw	fa5,4(s4)
    28f0:	3e800537          	lui	a0,0x3e800
    28f4:	f0050753          	fmv.w.x	fa4,a0
    28f8:	10e7f7d3          	fmul.s	fa5,fa5,fa4
    28fc:	e0078553          	fmv.x.w	a0,fa5
    2900:	26c010ef          	jal	ra,3b6c 
    2904:	f00507d3          	fmv.w.x	fa5,a0
    2908:	10f7f7d3          	fmul.s	fa5,fa5,fa5
    290c:	437f0537          	lui	a0,0x437f0
    2910:	f0050753          	fmv.w.x	fa4,a0
    2914:	10e7f6d3          	fmul.s	fa3,fa5,fa4
    2918:	00d9a027          	fsw	fa3,0(s3)
    291c:	3f800537          	lui	a0,0x3f800
    2920:	f00506d3          	fmv.w.x	fa3,a0
    2924:	08f6f7d3          	fsub.s	fa5,fa3,fa5
    2928:	10e7f7d3          	fmul.s	fa5,fa5,fa4
    292c:	00f9a227          	fsw	fa5,4(s3)
    2930:	3340006f          	j	2c64 
    2934:	00300593          	li	a1,3
    2938:	28b50063          	beq	a0,a1,2bb8 
    293c:	00400593          	li	a1,4
    2940:	32b51263          	bne	a0,a1,2c64 
    2944:	000a2787          	flw	fa5,0(s4)
    2948:	00042707          	flw	fa4,0(s0)
    294c:	00072503          	lw	a0,0(a4)
    2950:	08e7f7d3          	fsub.s	fa5,fa5,fa4
    2954:	02f12027          	fsw	fa5,32(sp)
    2958:	00070493          	mv	s1,a4
    295c:	414010ef          	jal	ra,3d70 
    2960:	008a2787          	flw	fa5,8(s4)
    2964:	00842707          	flw	fa4,8(s0)
    2968:	00048a93          	mv	s5,s1
    296c:	0084a583          	lw	a1,8(s1)
    2970:	f00506d3          	fmv.w.x	fa3,a0
    2974:	02012607          	flw	fa2,32(sp)
    2978:	10d676d3          	fmul.s	fa3,fa2,fa3
    297c:	02d12027          	fsw	fa3,32(sp)
    2980:	08e7f7d3          	fsub.s	fa5,fa5,fa4
    2984:	00f12e27          	fsw	fa5,28(sp)
    2988:	00058513          	mv	a0,a1
    298c:	3e4010ef          	jal	ra,3d70 
    2990:	f00507d3          	fmv.w.x	fa5,a0
    2994:	01c12707          	flw	fa4,28(sp)
    2998:	10f77753          	fmul.s	fa4,fa4,fa5
    299c:	02012787          	flw	fa5,32(sp)
    29a0:	10f7f7d3          	fmul.s	fa5,fa5,fa5
    29a4:	00e12a27          	fsw	fa4,20(sp)
    29a8:	10e77753          	fmul.s	fa4,fa4,fa4
    29ac:	00e7f7d3          	fadd.s	fa5,fa5,fa4
    29b0:	e0078553          	fmv.x.w	a0,fa5
    29b4:	3bc010ef          	jal	ra,3d70 
    29b8:	00050493          	mv	s1,a0
    29bc:	02012787          	flw	fa5,32(sp)
    29c0:	e0078553          	fmv.x.w	a0,fa5
    29c4:	78d000ef          	jal	ra,3950 
    29c8:	002ec5b7          	lui	a1,0x2ec
    29cc:	7c45a707          	flw	fa4,1988(a1) # 2ec7c4 
    29d0:	f00507d3          	fmv.w.x	fa5,a0
    29d4:	00e12c27          	fsw	fa4,24(sp)
    29d8:	a0e79553          	flt.s	a0,fa5,fa4
    29dc:	417005b7          	lui	a1,0x41700
    29e0:	f00587d3          	fmv.w.x	fa5,a1
    29e4:	00f12e27          	fsw	fa5,28(sp)
    29e8:	02051663          	bnez	a0,2a14 
    29ec:	02012787          	flw	fa5,32(sp)
    29f0:	01412707          	flw	fa4,20(sp)
    29f4:	18f777d3          	fdiv.s	fa5,fa4,fa5
    29f8:	e0078553          	fmv.x.w	a0,fa5
    29fc:	755000ef          	jal	ra,3950 
    2a00:	438010ef          	jal	ra,3e38 
    2a04:	002ec5b7          	lui	a1,0x2ec
    2a08:	7c85a787          	flw	fa5,1992(a1) # 2ec7c8 
    2a0c:	f0050753          	fmv.w.x	fa4,a0
    2a10:	10f777d3          	fmul.s	fa5,fa4,fa5
    2a14:	02f12027          	fsw	fa5,32(sp)
    2a18:	e0078953          	fmv.x.w	s2,fa5
    2a1c:	00090513          	mv	a0,s2
    2a20:	6b0010ef          	jal	ra,40d0 
    2a24:	004a2787          	flw	fa5,4(s4)
    2a28:	00f12827          	fsw	fa5,16(sp)
    2a2c:	00442787          	flw	fa5,4(s0)
    2a30:	00f12627          	fsw	fa5,12(sp)
    2a34:	004aa583          	lw	a1,4(s5)
    2a38:	f00507d3          	fmv.w.x	fa5,a0
    2a3c:	00f12a27          	fsw	fa5,20(sp)
    2a40:	00058513          	mv	a0,a1
    2a44:	32c010ef          	jal	ra,3d70 
    2a48:	00050413          	mv	s0,a0
    2a4c:	00090513          	mv	a0,s2
    2a50:	701000ef          	jal	ra,3950 
    2a54:	f00507d3          	fmv.w.x	fa5,a0
    2a58:	01812707          	flw	fa4,24(sp)
    2a5c:	a0e79553          	flt.s	a0,fa5,fa4
    2a60:	04051063          	bnez	a0,2aa0 
    2a64:	f00487d3          	fmv.w.x	fa5,s1
    2a68:	f0040753          	fmv.w.x	fa4,s0
    2a6c:	01012687          	flw	fa3,16(sp)
    2a70:	00c12607          	flw	fa2,12(sp)
    2a74:	08c6f6d3          	fsub.s	fa3,fa3,fa2
    2a78:	10e6f753          	fmul.s	fa4,fa3,fa4
    2a7c:	18f777d3          	fdiv.s	fa5,fa4,fa5
    2a80:	e0078553          	fmv.x.w	a0,fa5
    2a84:	6cd000ef          	jal	ra,3950 
    2a88:	3b0010ef          	jal	ra,3e38 
    2a8c:	002ec5b7          	lui	a1,0x2ec
    2a90:	7c85a787          	flw	fa5,1992(a1) # 2ec7c8 
    2a94:	f0050753          	fmv.w.x	fa4,a0
    2a98:	10f777d3          	fmul.s	fa5,fa4,fa5
    2a9c:	00f12e27          	fsw	fa5,28(sp)
    2aa0:	01c12787          	flw	fa5,28(sp)
    2aa4:	e0078553          	fmv.x.w	a0,fa5
    2aa8:	628010ef          	jal	ra,40d0 
    2aac:	f00507d3          	fmv.w.x	fa5,a0
    2ab0:	02012707          	flw	fa4,32(sp)
    2ab4:	01412687          	flw	fa3,20(sp)
    2ab8:	08e6f753          	fsub.s	fa4,fa3,fa4
    2abc:	002ec537          	lui	a0,0x2ec
    2ac0:	7cc52687          	flw	fa3,1996(a0) # 2ec7cc 
    2ac4:	3f000537          	lui	a0,0x3f000
    2ac8:	f0050653          	fmv.w.x	fa2,a0
    2acc:	00c77753          	fadd.s	fa4,fa4,fa2
    2ad0:	10e77753          	fmul.s	fa4,fa4,fa4
    2ad4:	08e6f753          	fsub.s	fa4,fa3,fa4
    2ad8:	01c12687          	flw	fa3,28(sp)
    2adc:	08d7f7d3          	fsub.s	fa5,fa5,fa3
    2ae0:	00c7f7d3          	fadd.s	fa5,fa5,fa2
    2ae4:	10f7f7d3          	fmul.s	fa5,fa5,fa5
    2ae8:	08f77753          	fsub.s	fa4,fa4,fa5
    2aec:	f00007d3          	fmv.w.x	fa5,zero
    2af0:	a0e79553          	flt.s	a0,fa5,fa4
    2af4:	00050863          	beqz	a0,2b04 
    2af8:	002ec537          	lui	a0,0x2ec
    2afc:	7d052787          	flw	fa5,2000(a0) # 2ec7d0 
    2b00:	10f777d3          	fmul.s	fa5,fa4,fa5
    2b04:	00f9a427          	fsw	fa5,8(s3)
    2b08:	15c0006f          	j	2c64 
    2b0c:	000a2787          	flw	fa5,0(s4)
    2b10:	00042707          	flw	fa4,0(s0)
    2b14:	002ec537          	lui	a0,0x2ec
    2b18:	7d852687          	flw	fa3,2008(a0) # 2ec7d8 
    2b1c:	02d12027          	fsw	fa3,32(sp)
    2b20:	08e7f7d3          	fsub.s	fa5,fa5,fa4
    2b24:	00f12c27          	fsw	fa5,24(sp)
    2b28:	10d7f7d3          	fmul.s	fa5,fa5,fa3
    2b2c:	e0078553          	fmv.x.w	a0,fa5
    2b30:	5a0010ef          	jal	ra,40d0 
    2b34:	f00507d3          	fmv.w.x	fa5,a0
    2b38:	41a00537          	lui	a0,0x41a00
    2b3c:	f0050753          	fmv.w.x	fa4,a0
    2b40:	00e12e27          	fsw	fa4,28(sp)
    2b44:	10e7f7d3          	fmul.s	fa5,fa5,fa4
    2b48:	01812707          	flw	fa4,24(sp)
    2b4c:	08f777d3          	fsub.s	fa5,fa4,fa5
    2b50:	008a2707          	flw	fa4,8(s4)
    2b54:	00842687          	flw	fa3,8(s0)
    2b58:	41200537          	lui	a0,0x41200
    2b5c:	f0050653          	fmv.w.x	fa2,a0
    2b60:	00c12c27          	fsw	fa2,24(sp)
    2b64:	a0c79453          	flt.s	s0,fa5,fa2
    2b68:	08d77753          	fsub.s	fa4,fa4,fa3
    2b6c:	00e12a27          	fsw	fa4,20(sp)
    2b70:	02012787          	flw	fa5,32(sp)
    2b74:	10f777d3          	fmul.s	fa5,fa4,fa5
    2b78:	e0078553          	fmv.x.w	a0,fa5
    2b7c:	554010ef          	jal	ra,40d0 
    2b80:	f00507d3          	fmv.w.x	fa5,a0
    2b84:	01c12707          	flw	fa4,28(sp)
    2b88:	10e7f7d3          	fmul.s	fa5,fa5,fa4
    2b8c:	01412707          	flw	fa4,20(sp)
    2b90:	08f777d3          	fsub.s	fa5,fa4,fa5
    2b94:	01812707          	flw	fa4,24(sp)
    2b98:	a0e79553          	flt.s	a0,fa5,fa4
    2b9c:	437f05b7          	lui	a1,0x437f0
    2ba0:	f00587d3          	fmv.w.x	fa5,a1
    2ba4:	f00006d3          	fmv.w.x	fa3,zero
    2ba8:	0a051463          	bnez	a0,2c50 
    2bac:	20d68753          	fmv.s	fa4,fa3
    2bb0:	0a040663          	beqz	s0,2c5c 
    2bb4:	0ac0006f          	j	2c60 
    2bb8:	000a2787          	flw	fa5,0(s4)
    2bbc:	00042707          	flw	fa4,0(s0)
    2bc0:	008a2687          	flw	fa3,8(s4)
    2bc4:	00842607          	flw	fa2,8(s0)
    2bc8:	08e7f7d3          	fsub.s	fa5,fa5,fa4
    2bcc:	08c6f753          	fsub.s	fa4,fa3,fa2
    2bd0:	10f7f7d3          	fmul.s	fa5,fa5,fa5
    2bd4:	10e77753          	fmul.s	fa4,fa4,fa4
    2bd8:	00e7f7d3          	fadd.s	fa5,fa5,fa4
    2bdc:	e0078553          	fmv.x.w	a0,fa5
    2be0:	190010ef          	jal	ra,3d70 
    2be4:	f00507d3          	fmv.w.x	fa5,a0
    2be8:	41200537          	lui	a0,0x41200
    2bec:	f0050753          	fmv.w.x	fa4,a0
    2bf0:	18e7f7d3          	fdiv.s	fa5,fa5,fa4
    2bf4:	02f12027          	fsw	fa5,32(sp)
    2bf8:	e0078553          	fmv.x.w	a0,fa5
    2bfc:	4d4010ef          	jal	ra,40d0 
    2c00:	002ec5b7          	lui	a1,0x2ec
    2c04:	7d45a787          	flw	fa5,2004(a1) # 2ec7d4 
    2c08:	f0050753          	fmv.w.x	fa4,a0
    2c0c:	02012687          	flw	fa3,32(sp)
    2c10:	08e6f753          	fsub.s	fa4,fa3,fa4
    2c14:	10f777d3          	fmul.s	fa5,fa4,fa5
    2c18:	e0078553          	fmv.x.w	a0,fa5
    2c1c:	13c010ef          	jal	ra,3d58 
    2c20:	f00507d3          	fmv.w.x	fa5,a0
    2c24:	10f7f7d3          	fmul.s	fa5,fa5,fa5
    2c28:	437f0537          	lui	a0,0x437f0
    2c2c:	f0050753          	fmv.w.x	fa4,a0
    2c30:	10e7f6d3          	fmul.s	fa3,fa5,fa4
    2c34:	00d9a227          	fsw	fa3,4(s3)
    2c38:	3f800537          	lui	a0,0x3f800
    2c3c:	f00506d3          	fmv.w.x	fa3,a0
    2c40:	08f6f7d3          	fsub.s	fa5,fa3,fa5
    2c44:	10e7f7d3          	fmul.s	fa5,fa5,fa4
    2c48:	00f9a427          	fsw	fa5,8(s3)
    2c4c:	0180006f          	j	2c64 
    2c50:	20f78753          	fmv.s	fa4,fa5
    2c54:	20d687d3          	fmv.s	fa5,fa3
    2c58:	00041463          	bnez	s0,2c60 
    2c5c:	20f78753          	fmv.s	fa4,fa5
    2c60:	00e9a227          	fsw	fa4,4(s3)
    2c64:	03c12083          	lw	ra,60(sp)
    2c68:	03812403          	lw	s0,56(sp)
    2c6c:	03412483          	lw	s1,52(sp)
    2c70:	03012903          	lw	s2,48(sp)
    2c74:	02c12983          	lw	s3,44(sp)
    2c78:	02812a03          	lw	s4,40(sp)
    2c7c:	02412a83          	lw	s5,36(sp)
    2c80:	04010113          	addi	sp,sp,64
    2c84:	00008067          	ret

0000000000002c88 :
    2c88:	00052787          	flw	fa5,0(a0) # 3f800000 <_sstack+0x3f5122d4>
    2c8c:	0005a707          	flw	fa4,0(a1)
    2c90:	00452687          	flw	fa3,4(a0)
    2c94:	0045a607          	flw	fa2,4(a1)
    2c98:	00852587          	flw	fa1,8(a0)
    2c9c:	0085a507          	flw	fa0,8(a1)
    2ca0:	10e7f7d3          	fmul.s	fa5,fa5,fa4
    2ca4:	10c6f753          	fmul.s	fa4,fa3,fa2
    2ca8:	00e7f7d3          	fadd.s	fa5,fa5,fa4
    2cac:	10a5f753          	fmul.s	fa4,fa1,fa0
    2cb0:	00e7f7d3          	fadd.s	fa5,fa5,fa4
    2cb4:	e0078553          	fmv.x.w	a0,fa5
    2cb8:	00008067          	ret

0000000000002cbc :
    2cbc:	0005a787          	flw	fa5,0(a1)
    2cc0:	00052707          	flw	fa4,0(a0)
    2cc4:	f00606d3          	fmv.w.x	fa3,a2
    2cc8:	10d7f7d3          	fmul.s	fa5,fa5,fa3
    2ccc:	00f777d3          	fadd.s	fa5,fa4,fa5
    2cd0:	00f52027          	fsw	fa5,0(a0)
    2cd4:	0045a787          	flw	fa5,4(a1)
    2cd8:	00452707          	flw	fa4,4(a0)
    2cdc:	10d7f7d3          	fmul.s	fa5,fa5,fa3
    2ce0:	00f777d3          	fadd.s	fa5,fa4,fa5
    2ce4:	00f52227          	fsw	fa5,4(a0)
    2ce8:	0085a787          	flw	fa5,8(a1)
    2cec:	00852707          	flw	fa4,8(a0)
    2cf0:	10d7f7d3          	fmul.s	fa5,fa5,fa3
    2cf4:	00f777d3          	fadd.s	fa5,fa4,fa5
    2cf8:	00f52427          	fsw	fa5,8(a0)
    2cfc:	00008067          	ret

0000000000002d00 :
    2d00:	f6010113          	addi	sp,sp,-160
    2d04:	08112e23          	sw	ra,156(sp)
    2d08:	08812c23          	sw	s0,152(sp)
    2d0c:	08912a23          	sw	s1,148(sp)
    2d10:	09212823          	sw	s2,144(sp)
    2d14:	09312623          	sw	s3,140(sp)
    2d18:	09412423          	sw	s4,136(sp)
    2d1c:	09512223          	sw	s5,132(sp)
    2d20:	09612023          	sw	s6,128(sp)
    2d24:	07712e23          	sw	s7,124(sp)
    2d28:	07812c23          	sw	s8,120(sp)
    2d2c:	07912a23          	sw	s9,116(sp)
    2d30:	07a12823          	sw	s10,112(sp)
    2d34:	07b12623          	sw	s11,108(sp)
    2d38:	00050413          	mv	s0,a0
    2d3c:	f00587d3          	fmv.w.x	fa5,a1
    2d40:	06f12427          	fsw	fa5,104(sp)
    2d44:	00010537          	lui	a0,0x10
    2d48:	07052503          	lw	a0,112(a0) # 10070 
    2d4c:	04a12423          	sw	a0,72(sp)
    2d50:	00010537          	lui	a0,0x10
    2d54:	05452503          	lw	a0,84(a0) # 10054 
    2d58:	06a12023          	sw	a0,96(sp)
    2d5c:	00010537          	lui	a0,0x10
    2d60:	06052d83          	lw	s11,96(a0) # 10060 
    2d64:	00010537          	lui	a0,0x10
    2d68:	02452503          	lw	a0,36(a0) # 10024 
    2d6c:	00a12e23          	sw	a0,28(sp)
    2d70:	00010537          	lui	a0,0x10
    2d74:	04452503          	lw	a0,68(a0) # 10044 
    2d78:	00a12a23          	sw	a0,20(sp)
    2d7c:	00010537          	lui	a0,0x10
    2d80:	09052503          	lw	a0,144(a0) # 10090 
    2d84:	04a12623          	sw	a0,76(sp)
    2d88:	00010537          	lui	a0,0x10
    2d8c:	07c52503          	lw	a0,124(a0) # 1007c 
    2d90:	02a12c23          	sw	a0,56(sp)
    2d94:	00010537          	lui	a0,0x10
    2d98:	00052503          	lw	a0,0(a0) # 10000 
    2d9c:	02a12a23          	sw	a0,52(sp)
    2da0:	00010537          	lui	a0,0x10
    2da4:	07452583          	lw	a1,116(a0) # 10074 
    2da8:	00010537          	lui	a0,0x10
    2dac:	08c52503          	lw	a0,140(a0) # 1008c 
    2db0:	04a12823          	sw	a0,80(sp)
    2db4:	00010537          	lui	a0,0x10
    2db8:	09452503          	lw	a0,148(a0) # 10094 
    2dbc:	02a12823          	sw	a0,48(sp)
    2dc0:	00010537          	lui	a0,0x10
    2dc4:	08852503          	lw	a0,136(a0) # 10088 
    2dc8:	02a12223          	sw	a0,36(sp)
    2dcc:	4e6e7537          	lui	a0,0x4e6e7
    2dd0:	b2850513          	addi	a0,a0,-1240 # 4e6e6b28 <_sstack+0x4e3f8dfc>
    2dd4:	04a12223          	sw	a0,68(sp)
    2dd8:	002ec537          	lui	a0,0x2ec
    2ddc:	7dc52787          	flw	fa5,2012(a0) # 2ec7dc 
    2de0:	04f12027          	fsw	fa5,64(sp)
    2de4:	002ec537          	lui	a0,0x2ec
    2de8:	7e052787          	flw	fa5,2016(a0) # 2ec7e0 
    2dec:	02f12e27          	fsw	fa5,60(sp)
    2df0:	f00007d3          	fmv.w.x	fa5,zero
    2df4:	04f12e27          	fsw	fa5,92(sp)
    2df8:	002ec537          	lui	a0,0x2ec
    2dfc:	7e452787          	flw	fa5,2020(a0) # 2ec7e4 
    2e00:	00f12c27          	fsw	fa5,24(sp)
    2e04:	002ec537          	lui	a0,0x2ec
    2e08:	7e852787          	flw	fa5,2024(a0) # 2ec7e8 
    2e0c:	02f12627          	fsw	fa5,44(sp)
    2e10:	c0000537          	lui	a0,0xc0000
    2e14:	f00507d3          	fmv.w.x	fa5,a0
    2e18:	02f12427          	fsw	fa5,40(sp)
    2e1c:	3f800537          	lui	a0,0x3f800
    2e20:	f00507d3          	fmv.w.x	fa5,a0
    2e24:	02f12027          	fsw	fa5,32(sp)
    2e28:	06b12223          	sw	a1,100(sp)
    2e2c:	04812483          	lw	s1,72(sp)
    2e30:	04412503          	lw	a0,68(sp)
    2e34:	00a4a023          	sw	a0,0(s1)
    2e38:	06012503          	lw	a0,96(sp)
    2e3c:	00052583          	lw	a1,0(a0) # 3f800000 <_sstack+0x3f5122d4>
    2e40:	00000513          	li	a0,0
    2e44:	a90ff0ef          	jal	ra,20d4 
    2e48:	0004a787          	flw	fa5,0(s1)
    2e4c:	04012707          	flw	fa4,64(sp)
    2e50:	a0f71553          	flt.s	a0,fa4,fa5
    2e54:	03c12707          	flw	fa4,60(sp)
    2e58:	a0e795d3          	flt.s	a1,fa5,fa4
    2e5c:	00b57933          	and	s2,a0,a1
    2e60:	00090513          	mv	a0,s2
    2e64:	16d000ef          	jal	ra,37d0 
    2e68:	08040863          	beqz	s0,2ef8 
    2e6c:	00157513          	andi	a0,a0,1
    2e70:	08050463          	beqz	a0,2ef8 
    2e74:	000da787          	flw	fa5,0(s11)
    2e78:	01c12503          	lw	a0,28(sp)
    2e7c:	00052707          	flw	fa4,0(a0)
    2e80:	004da687          	flw	fa3,4(s11)
    2e84:	00452607          	flw	fa2,4(a0)
    2e88:	008da587          	flw	fa1,8(s11)
    2e8c:	00852507          	flw	fa0,8(a0)
    2e90:	10e7f7d3          	fmul.s	fa5,fa5,fa4
    2e94:	10c6f753          	fmul.s	fa4,fa3,fa2
    2e98:	00e7f7d3          	fadd.s	fa5,fa5,fa4
    2e9c:	10a5f753          	fmul.s	fa4,fa1,fa0
    2ea0:	00e7f7d3          	fadd.s	fa5,fa5,fa4
    2ea4:	05c12707          	flw	fa4,92(sp)
    2ea8:	a0f70553          	fle.s	a0,fa4,fa5
    2eac:	04051663          	bnez	a0,2ef8 
    2eb0:	20f79753          	fneg.s	fa4,fa5
    2eb4:	10f7f7d3          	fmul.s	fa5,fa5,fa5
    2eb8:	01412503          	lw	a0,20(sp)
    2ebc:	00052687          	flw	fa3,0(a0)
    2ec0:	10e7f7d3          	fmul.s	fa5,fa5,fa4
    2ec4:	04c12503          	lw	a0,76(sp)
    2ec8:	00052707          	flw	fa4,0(a0)
    2ecc:	06812607          	flw	fa2,104(sp)
    2ed0:	10f677d3          	fmul.s	fa5,fa2,fa5
    2ed4:	10d7f7d3          	fmul.s	fa5,fa5,fa3
    2ed8:	00452687          	flw	fa3,4(a0)
    2edc:	00e7f753          	fadd.s	fa4,fa5,fa4
    2ee0:	00852607          	flw	fa2,8(a0)
    2ee4:	00e52027          	fsw	fa4,0(a0)
    2ee8:	00d7f753          	fadd.s	fa4,fa5,fa3
    2eec:	00e52227          	fsw	fa4,4(a0)
    2ef0:	00c7f7d3          	fadd.s	fa5,fa5,fa2
    2ef4:	00f52427          	fsw	fa5,8(a0)
    2ef8:	2c090263          	beqz	s2,31bc 
    2efc:	04812c23          	sw	s0,88(sp)
    2f00:	03812503          	lw	a0,56(sp)
    2f04:	00052503          	lw	a0,0(a0)
    2f08:	02800593          	li	a1,40
    2f0c:	aa4fd0ef          	jal	ra,1b0 <__mulsi3>
    2f10:	03412583          	lw	a1,52(sp)
    2f14:	00a58533          	add	a0,a1,a0
    2f18:	01c52903          	lw	s2,28(a0)
    2f1c:	01854a03          	lbu	s4,24(a0)
    2f20:	01452a83          	lw	s5,20(a0)
    2f24:	01052b03          	lw	s6,16(a0)
    2f28:	00c52b83          	lw	s7,12(a0)
    2f2c:	00852983          	lw	s3,8(a0)
    2f30:	00452c03          	lw	s8,4(a0)
    2f34:	00052c83          	lw	s9,0(a0)
    2f38:	02052483          	lw	s1,32(a0)
    2f3c:	02452403          	lw	s0,36(a0)
    2f40:	06412d03          	lw	s10,100(sp)
    2f44:	01a12423          	sw	s10,8(sp)
    2f48:	00812223          	sw	s0,4(sp)
    2f4c:	00912023          	sw	s1,0(sp)
    2f50:	000c8513          	mv	a0,s9
    2f54:	000c0593          	mv	a1,s8
    2f58:	00098613          	mv	a2,s3
    2f5c:	000b8693          	mv	a3,s7
    2f60:	000b0713          	mv	a4,s6
    2f64:	000a8793          	mv	a5,s5
    2f68:	000a0813          	mv	a6,s4
    2f6c:	00090893          	mv	a7,s2
    2f70:	e58ff0ef          	jal	ra,25c8 
    2f74:	06012503          	lw	a0,96(sp)
    2f78:	00052583          	lw	a1,0(a0)
    2f7c:	00000513          	li	a0,0
    2f80:	000d0613          	mv	a2,s10
    2f84:	d05fe0ef          	jal	ra,1c88 
    2f88:	0ff57513          	andi	a0,a0,255
    2f8c:	05c12787          	flw	fa5,92(sp)
    2f90:	06051263          	bnez	a0,2ff4 
    2f94:	05012583          	lw	a1,80(sp)
    2f98:	0005a787          	flw	fa5,0(a1)
    2f9c:	01c12503          	lw	a0,28(sp)
    2fa0:	00052707          	flw	fa4,0(a0)
    2fa4:	0045a687          	flw	fa3,4(a1)
    2fa8:	00452607          	flw	fa2,4(a0)
    2fac:	0085a587          	flw	fa1,8(a1)
    2fb0:	00852507          	flw	fa0,8(a0)
    2fb4:	10e7f7d3          	fmul.s	fa5,fa5,fa4
    2fb8:	10c6f753          	fmul.s	fa4,fa3,fa2
    2fbc:	00e7f7d3          	fadd.s	fa5,fa5,fa4
    2fc0:	10a5f753          	fmul.s	fa4,fa1,fa0
    2fc4:	00e7f753          	fadd.s	fa4,fa5,fa4
    2fc8:	05c12787          	flw	fa5,92(sp)
    2fcc:	a0e79553          	flt.s	a0,fa5,fa4
    2fd0:	01812787          	flw	fa5,24(sp)
    2fd4:	00051663          	bnez	a0,2fe0 
    2fd8:	01812787          	flw	fa5,24(sp)
    2fdc:	08e7f7d3          	fsub.s	fa5,fa5,fa4
    2fe0:	00092707          	flw	fa4,0(s2)
    2fe4:	06812687          	flw	fa3,104(sp)
    2fe8:	10f6f7d3          	fmul.s	fa5,fa3,fa5
    2fec:	10f777d3          	fmul.s	fa5,fa4,fa5
    2ff0:	06412d03          	lw	s10,100(sp)
    2ff4:	04f12a27          	fsw	fa5,84(sp)
    2ff8:	01a12423          	sw	s10,8(sp)
    2ffc:	00912023          	sw	s1,0(sp)
    3000:	00812223          	sw	s0,4(sp)
    3004:	000c8513          	mv	a0,s9
    3008:	000c0593          	mv	a1,s8
    300c:	00098613          	mv	a2,s3
    3010:	000b8693          	mv	a3,s7
    3014:	000b0713          	mv	a4,s6
    3018:	000a8793          	mv	a5,s5
    301c:	000a0813          	mv	a6,s4
    3020:	00090893          	mv	a7,s2
    3024:	865ff0ef          	jal	ra,2888 
    3028:	05412107          	flw	ft2,84(sp)
    302c:	03012583          	lw	a1,48(sp)
    3030:	0005a787          	flw	fa5,0(a1)
    3034:	04c12503          	lw	a0,76(sp)
    3038:	00052707          	flw	fa4,0(a0)
    303c:	10f177d3          	fmul.s	fa5,ft2,fa5
    3040:	00f777d3          	fadd.s	fa5,fa4,fa5
    3044:	00f52027          	fsw	fa5,0(a0)
    3048:	0045a787          	flw	fa5,4(a1)
    304c:	00452707          	flw	fa4,4(a0)
    3050:	10f177d3          	fmul.s	fa5,ft2,fa5
    3054:	00f777d3          	fadd.s	fa5,fa4,fa5
    3058:	00f52227          	fsw	fa5,4(a0)
    305c:	0085a787          	flw	fa5,8(a1)
    3060:	00852707          	flw	fa4,8(a0)
    3064:	10f177d3          	fmul.s	fa5,ft2,fa5
    3068:	00f777d3          	fadd.s	fa5,fa4,fa5
    306c:	00f52427          	fsw	fa5,8(a0)
    3070:	05812403          	lw	s0,88(sp)
    3074:	00400513          	li	a0,4
    3078:	14854263          	blt	a0,s0,31bc 
    307c:	06812787          	flw	fa5,104(sp)
    3080:	02c12707          	flw	fa4,44(sp)
    3084:	a0f71553          	flt.s	a0,fa4,fa5
    3088:	12050a63          	beqz	a0,31bc 
    308c:	000da787          	flw	fa5,0(s11)
    3090:	05012503          	lw	a0,80(sp)
    3094:	00052707          	flw	fa4,0(a0)
    3098:	004da687          	flw	fa3,4(s11)
    309c:	00452607          	flw	fa2,4(a0)
    30a0:	008da587          	flw	fa1,8(s11)
    30a4:	00852507          	flw	fa0,8(a0)
    30a8:	10e7f053          	fmul.s	ft0,fa5,fa4
    30ac:	10c6f653          	fmul.s	fa2,fa3,fa2
    30b0:	00c07653          	fadd.s	fa2,ft0,fa2
    30b4:	10a5f553          	fmul.s	fa0,fa1,fa0
    30b8:	00a67653          	fadd.s	fa2,fa2,fa0
    30bc:	02812507          	flw	fa0,40(sp)
    30c0:	10a67653          	fmul.s	fa2,fa2,fa0
    30c4:	10c77753          	fmul.s	fa4,fa4,fa2
    30c8:	00e7f7d3          	fadd.s	fa5,fa5,fa4
    30cc:	00fda027          	fsw	fa5,0(s11)
    30d0:	00452707          	flw	fa4,4(a0)
    30d4:	10c77753          	fmul.s	fa4,fa4,fa2
    30d8:	00e6f6d3          	fadd.s	fa3,fa3,fa4
    30dc:	00dda227          	fsw	fa3,4(s11)
    30e0:	00852707          	flw	fa4,8(a0)
    30e4:	10e67753          	fmul.s	fa4,fa2,fa4
    30e8:	00e5f653          	fadd.s	fa2,fa1,fa4
    30ec:	00cda427          	fsw	fa2,8(s11)
    30f0:	00200513          	li	a0,2
    30f4:	04a99263          	bne	s3,a0,3138 
    30f8:	06412583          	lw	a1,100(sp)
    30fc:	0005a787          	flw	fa5,0(a1)
    3100:	02412503          	lw	a0,36(sp)
    3104:	00f52027          	fsw	fa5,0(a0)
    3108:	0045a787          	flw	fa5,4(a1)
    310c:	00f52227          	fsw	fa5,4(a0)
    3110:	0085a787          	flw	fa5,8(a1)
    3114:	00f52427          	fsw	fa5,8(a0)
    3118:	00092787          	flw	fa5,0(s2)
    311c:	02012707          	flw	fa4,32(sp)
    3120:	08f777d3          	fsub.s	fa5,fa4,fa5
    3124:	06812707          	flw	fa4,104(sp)
    3128:	10f77753          	fmul.s	fa4,fa4,fa5
    312c:	06e12427          	fsw	fa4,104(sp)
    3130:	00140413          	addi	s0,s0,1
    3134:	cf9ff06f          	j	2e2c 
    3138:	00100513          	li	a0,1
    313c:	08a99063          	bne	s3,a0,31bc 
    3140:	00492707          	flw	fa4,4(s2)
    3144:	f00005d3          	fmv.w.x	fa1,zero
    3148:	a0b72553          	feq.s	a0,fa4,fa1
    314c:	06051863          	bnez	a0,31bc 
    3150:	01c12503          	lw	a0,28(sp)
    3154:	00052507          	flw	fa0,0(a0)
    3158:	00452007          	flw	ft0,4(a0)
    315c:	00852087          	flw	ft1,8(a0)
    3160:	10a7f7d3          	fmul.s	fa5,fa5,fa0
    3164:	1006f6d3          	fmul.s	fa3,fa3,ft0
    3168:	00d7f7d3          	fadd.s	fa5,fa5,fa3
    316c:	101676d3          	fmul.s	fa3,fa2,ft1
    3170:	00d7f7d3          	fadd.s	fa5,fa5,fa3
    3174:	a0f58553          	fle.s	a0,fa1,fa5
    3178:	04051263          	bnez	a0,31bc 
    317c:	10f7f7d3          	fmul.s	fa5,fa5,fa5
    3180:	10f7f7d3          	fmul.s	fa5,fa5,fa5
    3184:	06812687          	flw	fa3,104(sp)
    3188:	10f6f7d3          	fmul.s	fa5,fa3,fa5
    318c:	04c12503          	lw	a0,76(sp)
    3190:	00052687          	flw	fa3,0(a0)
    3194:	10f177d3          	fmul.s	fa5,ft2,fa5
    3198:	10f777d3          	fmul.s	fa5,fa4,fa5
    319c:	00452707          	flw	fa4,4(a0)
    31a0:	00d7f6d3          	fadd.s	fa3,fa5,fa3
    31a4:	00852607          	flw	fa2,8(a0)
    31a8:	00d52027          	fsw	fa3,0(a0)
    31ac:	00e7f753          	fadd.s	fa4,fa5,fa4
    31b0:	00e52227          	fsw	fa4,4(a0)
    31b4:	00c7f7d3          	fadd.s	fa5,fa5,fa2
    31b8:	00f52427          	fsw	fa5,8(a0)
    31bc:	09c12083          	lw	ra,156(sp)
    31c0:	09812403          	lw	s0,152(sp)
    31c4:	09412483          	lw	s1,148(sp)
    31c8:	09012903          	lw	s2,144(sp)
    31cc:	08c12983          	lw	s3,140(sp)
    31d0:	08812a03          	lw	s4,136(sp)
    31d4:	08412a83          	lw	s5,132(sp)
    31d8:	08012b03          	lw	s6,128(sp)
    31dc:	07c12b83          	lw	s7,124(sp)
    31e0:	07812c03          	lw	s8,120(sp)
    31e4:	07412c83          	lw	s9,116(sp)
    31e8:	07012d03          	lw	s10,112(sp)
    31ec:	06c12d83          	lw	s11,108(sp)
    31f0:	0a010113          	addi	sp,sp,160
    31f4:	00008067          	ret

00000000000031f8 :
    31f8:	ff010113          	addi	sp,sp,-16
    31fc:	00112623          	sw	ra,12(sp)
    3200:	00812423          	sw	s0,8(sp)
    3204:	00912223          	sw	s1,4(sp)
    3208:	00010537          	lui	a0,0x10
    320c:	09052403          	lw	s0,144(a0) # 10090 
    3210:	00042503          	lw	a0,0(s0)
    3214:	748000ef          	jal	ra,395c 
    3218:	0ff00493          	li	s1,255
    321c:	00954463          	blt	a0,s1,3224 
    3220:	0ff00513          	li	a0,255
    3224:	5b4000ef          	jal	ra,37d8 
    3228:	00442503          	lw	a0,4(s0)
    322c:	730000ef          	jal	ra,395c 
    3230:	00954463          	blt	a0,s1,3238 
    3234:	0ff00513          	li	a0,255
    3238:	5a0000ef          	jal	ra,37d8 
    323c:	00842503          	lw	a0,8(s0)
    3240:	71c000ef          	jal	ra,395c 
    3244:	00954463          	blt	a0,s1,324c 
    3248:	0ff00513          	li	a0,255
    324c:	00c12083          	lw	ra,12(sp)
    3250:	00812403          	lw	s0,8(sp)
    3254:	00412483          	lw	s1,4(sp)
    3258:	01010113          	addi	sp,sp,16
    325c:	57c0006f          	j	37d8 

0000000000003260 :
    3260:	ff010113          	addi	sp,sp,-16
    3264:	00112623          	sw	ra,12(sp)
    3268:	00812423          	sw	s0,8(sp)
    326c:	05000513          	li	a0,80
    3270:	568000ef          	jal	ra,37d8 
    3274:	03600513          	li	a0,54
    3278:	560000ef          	jal	ra,37d8 
    327c:	00a00513          	li	a0,10
    3280:	558000ef          	jal	ra,37d8 
    3284:	00010537          	lui	a0,0x10
    3288:	00c52403          	lw	s0,12(a0) # 1000c 
    328c:	00042503          	lw	a0,0(s0)
    3290:	56c000ef          	jal	ra,37fc 
    3294:	02000513          	li	a0,32
    3298:	540000ef          	jal	ra,37d8 
    329c:	00442503          	lw	a0,4(s0)
    32a0:	55c000ef          	jal	ra,37fc 
    32a4:	00a00513          	li	a0,10
    32a8:	530000ef          	jal	ra,37d8 
    32ac:	0ff00513          	li	a0,255
    32b0:	54c000ef          	jal	ra,37fc 
    32b4:	00a00513          	li	a0,10
    32b8:	00c12083          	lw	ra,12(sp)
    32bc:	00812403          	lw	s0,8(sp)
    32c0:	01010113          	addi	sp,sp,16
    32c4:	5140006f          	j	37d8 

00000000000032c8 :
    32c8:	fc010113          	addi	sp,sp,-64
    32cc:	02112e23          	sw	ra,60(sp)
    32d0:	02812c23          	sw	s0,56(sp)
    32d4:	02912a23          	sw	s1,52(sp)
    32d8:	03212823          	sw	s2,48(sp)
    32dc:	03312623          	sw	s3,44(sp)
    32e0:	03412423          	sw	s4,40(sp)
    32e4:	03512223          	sw	s5,36(sp)
    32e8:	03612023          	sw	s6,32(sp)
    32ec:	01712e23          	sw	s7,28(sp)
    32f0:	01812c23          	sw	s8,24(sp)
    32f4:	01912a23          	sw	s9,20(sp)
    32f8:	01a12823          	sw	s10,16(sp)
    32fc:	01b12623          	sw	s11,12(sp)
    3300:	000105b7          	lui	a1,0x10
    3304:	00c5a583          	lw	a1,12(a1) # 1000c 
    3308:	00b12423          	sw	a1,8(sp)
    330c:	0005a583          	lw	a1,0(a1)
    3310:	18b55c63          	ble	a1,a0,34a8 
    3314:	00050413          	mv	s0,a0
    3318:	00010537          	lui	a0,0x10
    331c:	0b452503          	lw	a0,180(a0) # 100b4 
    3320:	00a12223          	sw	a0,4(sp)
    3324:	00010537          	lui	a0,0x10
    3328:	0ac52503          	lw	a0,172(a0) # 100ac 
    332c:	00a12023          	sw	a0,0(sp)
    3330:	00010537          	lui	a0,0x10
    3334:	03052a03          	lw	s4,48(a0) # 10030 
    3338:	00010537          	lui	a0,0x10
    333c:	0c852a83          	lw	s5,200(a0) # 100c8 
    3340:	00010537          	lui	a0,0x10
    3344:	06052b03          	lw	s6,96(a0) # 10060 
    3348:	00010537          	lui	a0,0x10
    334c:	0bc52b83          	lw	s7,188(a0) # 100bc 
    3350:	00010537          	lui	a0,0x10
    3354:	01c52c03          	lw	s8,28(a0) # 1001c 
    3358:	00010537          	lui	a0,0x10
    335c:	03c52c83          	lw	s9,60(a0) # 1003c 
    3360:	00010537          	lui	a0,0x10
    3364:	0c452d03          	lw	s10,196(a0) # 100c4 
    3368:	00010537          	lui	a0,0x10
    336c:	02052d83          	lw	s11,32(a0) # 10020 
    3370:	00010537          	lui	a0,0x10
    3374:	08852903          	lw	s2,136(a0) # 10088 
    3378:	00010537          	lui	a0,0x10
    337c:	09052983          	lw	s3,144(a0) # 10090 
    3380:	0ff00493          	li	s1,255
    3384:	0180006f          	j	339c 
    3388:	450000ef          	jal	ra,37d8 
    338c:	00812503          	lw	a0,8(sp)
    3390:	00052503          	lw	a0,0(a0)
    3394:	00140413          	addi	s0,s0,1
    3398:	10a45863          	ble	a0,s0,34a8 
    339c:	00040513          	mv	a0,s0
    33a0:	5a4000ef          	jal	ra,3944 
    33a4:	f00507d3          	fmv.w.x	fa5,a0
    33a8:	00412503          	lw	a0,4(sp)
    33ac:	00052707          	flw	fa4,0(a0)
    33b0:	00012503          	lw	a0,0(sp)
    33b4:	00052687          	flw	fa3,0(a0)
    33b8:	004a2607          	flw	fa2,4(s4)
    33bc:	000aa587          	flw	fa1,0(s5)
    33c0:	08e7f7d3          	fsub.s	fa5,fa5,fa4
    33c4:	10d7f7d3          	fmul.s	fa5,fa5,fa3
    33c8:	10c7f753          	fmul.s	fa4,fa5,fa2
    33cc:	00b77753          	fadd.s	fa4,fa4,fa1
    33d0:	00eb2027          	fsw	fa4,0(s6)
    33d4:	000ba707          	flw	fa4,0(s7)
    33d8:	000a2687          	flw	fa3,0(s4)
    33dc:	004c2607          	flw	fa2,4(s8)
    33e0:	10d77753          	fmul.s	fa4,fa4,fa3
    33e4:	08c77753          	fsub.s	fa4,fa4,fa2
    33e8:	00eb2227          	fsw	fa4,4(s6)
    33ec:	004ca707          	flw	fa4,4(s9)
    33f0:	008aa687          	flw	fa3,8(s5)
    33f4:	10e7f753          	fmul.s	fa4,fa5,fa4
    33f8:	08e6f753          	fsub.s	fa4,fa3,fa4
    33fc:	00eb2427          	fsw	fa4,8(s6)
    3400:	000d2707          	flw	fa4,0(s10)
    3404:	10f7f7d3          	fmul.s	fa5,fa5,fa5
    3408:	00e7f7d3          	fadd.s	fa5,fa5,fa4
    340c:	e0078553          	fmv.x.w	a0,fa5
    3410:	161000ef          	jal	ra,3d70 
    3414:	000b2787          	flw	fa5,0(s6)
    3418:	f0050753          	fmv.w.x	fa4,a0
    341c:	004b2687          	flw	fa3,4(s6)
    3420:	18e7f7d3          	fdiv.s	fa5,fa5,fa4
    3424:	008b2607          	flw	fa2,8(s6)
    3428:	00fb2027          	fsw	fa5,0(s6)
    342c:	18e6f7d3          	fdiv.s	fa5,fa3,fa4
    3430:	00fb2227          	fsw	fa5,4(s6)
    3434:	18e677d3          	fdiv.s	fa5,fa2,fa4
    3438:	00fb2427          	fsw	fa5,8(s6)
    343c:	000da787          	flw	fa5,0(s11)
    3440:	00f92027          	fsw	fa5,0(s2)
    3444:	004da787          	flw	fa5,4(s11)
    3448:	00f92227          	fsw	fa5,4(s2)
    344c:	008da787          	flw	fa5,8(s11)
    3450:	00f92427          	fsw	fa5,8(s2)
    3454:	0009a023          	sw	zero,0(s3)
    3458:	0009a223          	sw	zero,4(s3)
    345c:	0009a423          	sw	zero,8(s3)
    3460:	3f8005b7          	lui	a1,0x3f800
    3464:	00000513          	li	a0,0
    3468:	899ff0ef          	jal	ra,2d00 
    346c:	0009a503          	lw	a0,0(s3)
    3470:	4ec000ef          	jal	ra,395c 
    3474:	00954463          	blt	a0,s1,347c 
    3478:	0ff00513          	li	a0,255
    347c:	35c000ef          	jal	ra,37d8 
    3480:	0049a503          	lw	a0,4(s3)
    3484:	4d8000ef          	jal	ra,395c 
    3488:	00954463          	blt	a0,s1,3490 
    348c:	0ff00513          	li	a0,255
    3490:	348000ef          	jal	ra,37d8 
    3494:	0089a503          	lw	a0,8(s3)
    3498:	4c4000ef          	jal	ra,395c 
    349c:	ee9546e3          	blt	a0,s1,3388 
    34a0:	0ff00513          	li	a0,255
    34a4:	ee5ff06f          	j	3388 
    34a8:	03c12083          	lw	ra,60(sp)
    34ac:	03812403          	lw	s0,56(sp)
    34b0:	03412483          	lw	s1,52(sp)
    34b4:	03012903          	lw	s2,48(sp)
    34b8:	02c12983          	lw	s3,44(sp)
    34bc:	02812a03          	lw	s4,40(sp)
    34c0:	02412a83          	lw	s5,36(sp)
    34c4:	02012b03          	lw	s6,32(sp)
    34c8:	01c12b83          	lw	s7,28(sp)
    34cc:	01812c03          	lw	s8,24(sp)
    34d0:	01412c83          	lw	s9,20(sp)
    34d4:	01012d03          	lw	s10,16(sp)
    34d8:	00c12d83          	lw	s11,12(sp)
    34dc:	04010113          	addi	sp,sp,64
    34e0:	00008067          	ret

00000000000034e4 :
    34e4:	fc010113          	addi	sp,sp,-64
    34e8:	02112e23          	sw	ra,60(sp)
    34ec:	02812c23          	sw	s0,56(sp)
    34f0:	02912a23          	sw	s1,52(sp)
    34f4:	03212823          	sw	s2,48(sp)
    34f8:	03312623          	sw	s3,44(sp)
    34fc:	03412423          	sw	s4,40(sp)
    3500:	03512223          	sw	s5,36(sp)
    3504:	03612023          	sw	s6,32(sp)
    3508:	01712e23          	sw	s7,28(sp)
    350c:	01812c23          	sw	s8,24(sp)
    3510:	01912a23          	sw	s9,20(sp)
    3514:	000105b7          	lui	a1,0x10
    3518:	00c5a483          	lw	s1,12(a1) # 1000c 
    351c:	0004a583          	lw	a1,0(s1)
    3520:	0eb55463          	ble	a1,a0,3608 
    3524:	00050413          	mv	s0,a0
    3528:	00010537          	lui	a0,0x10
    352c:	0b452903          	lw	s2,180(a0) # 100b4 
    3530:	00010537          	lui	a0,0x10
    3534:	0ac52983          	lw	s3,172(a0) # 100ac 
    3538:	00010537          	lui	a0,0x10
    353c:	0bc52a03          	lw	s4,188(a0) # 100bc 
    3540:	00010537          	lui	a0,0x10
    3544:	0c452a83          	lw	s5,196(a0) # 100c4 
    3548:	00010537          	lui	a0,0x10
    354c:	03c52b03          	lw	s6,60(a0) # 1003c 
    3550:	00010537          	lui	a0,0x10
    3554:	01c52b83          	lw	s7,28(a0) # 1001c 
    3558:	00010537          	lui	a0,0x10
    355c:	0c852c03          	lw	s8,200(a0) # 100c8 
    3560:	00010537          	lui	a0,0x10
    3564:	03052c83          	lw	s9,48(a0) # 10030 
    3568:	bf800537          	lui	a0,0xbf800
    356c:	f00507d3          	fmv.w.x	fa5,a0
    3570:	00f12627          	fsw	fa5,12(sp)
    3574:	471c4537          	lui	a0,0x471c4
    3578:	f00507d3          	fmv.w.x	fa5,a0
    357c:	00f12427          	fsw	fa5,8(sp)
    3580:	00092787          	flw	fa5,0(s2)
    3584:	00c12707          	flw	fa4,12(sp)
    3588:	00e7f7d3          	fadd.s	fa5,fa5,fa4
    358c:	00f12827          	fsw	fa5,16(sp)
    3590:	00040513          	mv	a0,s0
    3594:	3b0000ef          	jal	ra,3944 
    3598:	0009a787          	flw	fa5,0(s3)
    359c:	f0050753          	fmv.w.x	fa4,a0
    35a0:	01012687          	flw	fa3,16(sp)
    35a4:	08e6f753          	fsub.s	fa4,fa3,fa4
    35a8:	10f777d3          	fmul.s	fa5,fa4,fa5
    35ac:	00fa2027          	fsw	fa5,0(s4)
    35b0:	10f7f7d3          	fmul.s	fa5,fa5,fa5
    35b4:	00812707          	flw	fa4,8(sp)
    35b8:	00e7f7d3          	fadd.s	fa5,fa5,fa4
    35bc:	00faa027          	fsw	fa5,0(s5)
    35c0:	000a2787          	flw	fa5,0(s4)
    35c4:	000b2707          	flw	fa4,0(s6)
    35c8:	004b2687          	flw	fa3,4(s6)
    35cc:	000ba607          	flw	fa2,0(s7)
    35d0:	10e7f7d3          	fmul.s	fa5,fa5,fa4
    35d4:	10d7f753          	fmul.s	fa4,fa5,fa3
    35d8:	08c77753          	fsub.s	fa4,fa4,fa2
    35dc:	00ec2027          	fsw	fa4,0(s8)
    35e0:	004ca707          	flw	fa4,4(s9)
    35e4:	008ba687          	flw	fa3,8(s7)
    35e8:	10e7f7d3          	fmul.s	fa5,fa5,fa4
    35ec:	08d7f7d3          	fsub.s	fa5,fa5,fa3
    35f0:	00fc2427          	fsw	fa5,8(s8)
    35f4:	00000513          	li	a0,0
    35f8:	cd1ff0ef          	jal	ra,32c8 
    35fc:	0004a503          	lw	a0,0(s1)
    3600:	00140413          	addi	s0,s0,1
    3604:	f6a44ee3          	blt	s0,a0,3580 
    3608:	03c12083          	lw	ra,60(sp)
    360c:	03812403          	lw	s0,56(sp)
    3610:	03412483          	lw	s1,52(sp)
    3614:	03012903          	lw	s2,48(sp)
    3618:	02c12983          	lw	s3,44(sp)
    361c:	02812a03          	lw	s4,40(sp)
    3620:	02412a83          	lw	s5,36(sp)
    3624:	02012b03          	lw	s6,32(sp)
    3628:	01c12b83          	lw	s7,28(sp)
    362c:	01812c03          	lw	s8,24(sp)
    3630:	01412c83          	lw	s9,20(sp)
    3634:	04010113          	addi	sp,sp,64
    3638:	00008067          	ret

000000000000363c :
    363c:	ff010113          	addi	sp,sp,-16
    3640:	00112623          	sw	ra,12(sp)
    3644:	00812423          	sw	s0,8(sp)
    3648:	05000513          	li	a0,80
    364c:	18c000ef          	jal	ra,37d8 
    3650:	03600513          	li	a0,54
    3654:	184000ef          	jal	ra,37d8 
    3658:	00a00513          	li	a0,10
    365c:	17c000ef          	jal	ra,37d8 
    3660:	00010537          	lui	a0,0x10
    3664:	00c52403          	lw	s0,12(a0) # 1000c 
    3668:	00042503          	lw	a0,0(s0)
    366c:	190000ef          	jal	ra,37fc 
    3670:	02000513          	li	a0,32
    3674:	164000ef          	jal	ra,37d8 
    3678:	00442503          	lw	a0,4(s0)
    367c:	180000ef          	jal	ra,37fc 
    3680:	00a00513          	li	a0,10
    3684:	154000ef          	jal	ra,37d8 
    3688:	0ff00513          	li	a0,255
    368c:	170000ef          	jal	ra,37fc 
    3690:	00a00513          	li	a0,10
    3694:	144000ef          	jal	ra,37d8 
    3698:	00042503          	lw	a0,0(s0)
    369c:	2a8000ef          	jal	ra,3944 
    36a0:	f00507d3          	fmv.w.x	fa5,a0
    36a4:	00010537          	lui	a0,0x10
    36a8:	0ac52503          	lw	a0,172(a0) # 100ac 
    36ac:	430005b7          	lui	a1,0x43000
    36b0:	f0058753          	fmv.w.x	fa4,a1
    36b4:	18f77753          	fdiv.s	fa4,fa4,fa5
    36b8:	00e52027          	fsw	fa4,0(a0)
    36bc:	00010537          	lui	a0,0x10
    36c0:	0b452503          	lw	a0,180(a0) # 100b4 
    36c4:	3f0005b7          	lui	a1,0x3f000
    36c8:	f0058753          	fmv.w.x	fa4,a1
    36cc:	10e7f7d3          	fmul.s	fa5,fa5,fa4
    36d0:	00f52027          	fsw	fa5,0(a0)
    36d4:	00000513          	li	a0,0
    36d8:	00c12083          	lw	ra,12(sp)
    36dc:	00812403          	lw	s0,8(sp)
    36e0:	01010113          	addi	sp,sp,16
    36e4:	e01ff06f          	j	34e4 

00000000000036e8 :
    36e8:	ff010113          	addi	sp,sp,-16
    36ec:	00112623          	sw	ra,12(sp)
    36f0:	000106b7          	lui	a3,0x10
    36f4:	00c6a683          	lw	a3,12(a3) # 1000c 
    36f8:	00010737          	lui	a4,0x10
    36fc:	01472703          	lw	a4,20(a4) # 10014 
    3700:	00a6a023          	sw	a0,0(a3)
    3704:	00b6a223          	sw	a1,4(a3)
    3708:	00c70023          	sb	a2,0(a4)
    370c:	ef0fd0ef          	jal	ra,dfc 
    3710:	00c12083          	lw	ra,12(sp)
    3714:	01010113          	addi	sp,sp,16
    3718:	f25ff06f          	j	363c 

000000000000371c :
    371c:	ff010113          	addi	sp,sp,-16
    3720:	00112623          	sw	ra,12(sp)
    3724:	00812423          	sw	s0,8(sp)
    3728:	00912223          	sw	s1,4(sp)
    372c:	01212023          	sw	s2,0(sp)
    3730:	03200513          	li	a0,50
    3734:	00400593          	li	a1,4
    3738:	00400493          	li	s1,4
    373c:	9b1fc0ef          	jal	ra,ec 
    3740:	00050413          	mv	s0,a0
    3744:	00010937          	lui	s2,0x10
    3748:	04a92823          	sw	a0,80(s2) # 10050 
    374c:	00100513          	li	a0,1
    3750:	00400593          	li	a1,4
    3754:	999fc0ef          	jal	ra,ec 
    3758:	00a42023          	sw	a0,0(s0)
    375c:	bf8005b7          	lui	a1,0xbf800
    3760:	00b52023          	sw	a1,0(a0)
    3764:	0c800513          	li	a0,200
    3768:	05092583          	lw	a1,80(s2)
    376c:	0005a603          	lw	a2,0(a1) # ffffffffbf800000 <_sstack+0xffffffffbf5122d4>
    3770:	009585b3          	add	a1,a1,s1
    3774:	00448493          	addi	s1,s1,4
    3778:	00c5a023          	sw	a2,0(a1)
    377c:	fea496e3          	bne	s1,a0,3768 
    3780:	00100513          	li	a0,1
    3784:	00400593          	li	a1,4
    3788:	965fc0ef          	jal	ra,ec 
    378c:	00050413          	mv	s0,a0
    3790:	00010537          	lui	a0,0x10
    3794:	04852a23          	sw	s0,84(a0) # 10054 
    3798:	00100513          	li	a0,1
    379c:	00400593          	li	a1,4
    37a0:	94dfc0ef          	jal	ra,ec 
    37a4:	000105b7          	lui	a1,0x10
    37a8:	0505a583          	lw	a1,80(a1) # 10050 
    37ac:	00a42023          	sw	a0,0(s0)
    37b0:	0005a583          	lw	a1,0(a1)
    37b4:	00b52023          	sw	a1,0(a0)
    37b8:	00c12083          	lw	ra,12(sp)
    37bc:	00812403          	lw	s0,8(sp)
    37c0:	00412483          	lw	s1,4(sp)
    37c4:	00012903          	lw	s2,0(sp)
    37c8:	01010113          	addi	sp,sp,16
    37cc:	00008067          	ret

00000000000037d0 :
    37d0:	00153513          	seqz	a0,a0
    37d4:	00008067          	ret

00000000000037d8 :
    37d8:	000105b7          	lui	a1,0x10
    37dc:	0cc5a603          	lw	a2,204(a1) # 100cc 
    37e0:	00160693          	addi	a3,a2,1
    37e4:	0cd5a623          	sw	a3,204(a1)
    37e8:	000105b7          	lui	a1,0x10
    37ec:	0d058593          	addi	a1,a1,208 # 100d0 
    37f0:	00c585b3          	add	a1,a1,a2
    37f4:	00a58023          	sb	a0,0(a1)
    37f8:	00008067          	ret

00000000000037fc :
    37fc:	0e050c63          	beqz	a0,38f4 
    3800:	fd010113          	addi	sp,sp,-48
    3804:	02112623          	sw	ra,44(sp)
    3808:	02812423          	sw	s0,40(sp)
    380c:	02912223          	sw	s1,36(sp)
    3810:	03212023          	sw	s2,32(sp)
    3814:	01312e23          	sw	s3,28(sp)
    3818:	01412c23          	sw	s4,24(sp)
    381c:	00050413          	mv	s0,a0
    3820:	02055663          	bgez	a0,384c 
    3824:	00010537          	lui	a0,0x10
    3828:	0cc52583          	lw	a1,204(a0) # 100cc 
    382c:	00158613          	addi	a2,a1,1
    3830:	0cc52623          	sw	a2,204(a0)
    3834:	00010537          	lui	a0,0x10
    3838:	0d050513          	addi	a0,a0,208 # 100d0 
    383c:	00b50533          	add	a0,a0,a1
    3840:	02d00593          	li	a1,45
    3844:	00b50023          	sb	a1,0(a0)
    3848:	40800433          	neg	s0,s0
    384c:	00000593          	li	a1,0
    3850:	00a00913          	li	s2,10
    3854:	00c10993          	addi	s3,sp,12
    3858:	00040493          	mv	s1,s0
    385c:	00058a13          	mv	s4,a1
    3860:	00a00593          	li	a1,10
    3864:	00040513          	mv	a0,s0
    3868:	9cdfc0ef          	jal	ra,234 <__udivsi3>
    386c:	00050413          	mv	s0,a0
    3870:	00a00593          	li	a1,10
    3874:	93dfc0ef          	jal	ra,1b0 <__mulsi3>
    3878:	40a48533          	sub	a0,s1,a0
    387c:	03056513          	ori	a0,a0,48
    3880:	001a0593          	addi	a1,s4,1
    3884:	01498a33          	add	s4,s3,s4
    3888:	00aa0023          	sb	a0,0(s4)
    388c:	fd24f6e3          	bleu	s2,s1,3858 
    3890:	00010537          	lui	a0,0x10
    3894:	0cc52603          	lw	a2,204(a0) # 100cc 
    3898:	fff58593          	addi	a1,a1,-1
    389c:	00c10513          	addi	a0,sp,12
    38a0:	000106b7          	lui	a3,0x10
    38a4:	0d068693          	addi	a3,a3,208 # 100d0 
    38a8:	00100713          	li	a4,1
    38ac:	00b507b3          	add	a5,a0,a1
    38b0:	0007c783          	lbu	a5,0(a5)
    38b4:	00c68833          	add	a6,a3,a2
    38b8:	00160613          	addi	a2,a2,1
    38bc:	00158893          	addi	a7,a1,1
    38c0:	fff58593          	addi	a1,a1,-1
    38c4:	00f80023          	sb	a5,0(a6)
    38c8:	ff1762e3          	bltu	a4,a7,38ac 
    38cc:	00010537          	lui	a0,0x10
    38d0:	0cc52623          	sw	a2,204(a0) # 100cc 
    38d4:	02c12083          	lw	ra,44(sp)
    38d8:	02812403          	lw	s0,40(sp)
    38dc:	02412483          	lw	s1,36(sp)
    38e0:	02012903          	lw	s2,32(sp)
    38e4:	01c12983          	lw	s3,28(sp)
    38e8:	01812a03          	lw	s4,24(sp)
    38ec:	03010113          	addi	sp,sp,48
    38f0:	00008067          	ret
    38f4:	00010537          	lui	a0,0x10
    38f8:	0cc52583          	lw	a1,204(a0) # 100cc 
    38fc:	00158613          	addi	a2,a1,1
    3900:	0cc52623          	sw	a2,204(a0)
    3904:	00010537          	lui	a0,0x10
    3908:	0d050513          	addi	a0,a0,208 # 100d0 
    390c:	00b50533          	add	a0,a0,a1
    3910:	03000593          	li	a1,48
    3914:	00b50023          	sb	a1,0(a0)
    3918:	00008067          	ret

000000000000391c :
    391c:	ff010113          	addi	sp,sp,-16
    3920:	00112623          	sw	ra,12(sp)
    3924:	002ec537          	lui	a0,0x2ec
    3928:	79050513          	addi	a0,a0,1936 # 2ec790 
    392c:	00810593          	addi	a1,sp,8
    3930:	ff0fc0ef          	jal	ra,120 
    3934:	00812503          	lw	a0,8(sp)
    3938:	00c12083          	lw	ra,12(sp)
    393c:	01010113          	addi	sp,sp,16
    3940:	00008067          	ret

0000000000003944 :
    3944:	d00577d3          	fcvt.s.w	fa5,a0
    3948:	e0078553          	fmv.x.w	a0,fa5
    394c:	00008067          	ret

0000000000003950 :
    3950:	00151513          	slli	a0,a0,0x1
    3954:	00155513          	srli	a0,a0,0x1
    3958:	00008067          	ret

000000000000395c :
    395c:	f00507d3          	fmv.w.x	fa5,a0
    3960:	c0079553          	fcvt.w.s	a0,fa5,rtz
    3964:	00008067          	ret

0000000000003968 :
    3968:	ff010113          	addi	sp,sp,-16
    396c:	00112623          	sw	ra,12(sp)
    3970:	00812423          	sw	s0,8(sp)
    3974:	00912223          	sw	s1,4(sp)
    3978:	00058413          	mv	s0,a1
    397c:	00050493          	mv	s1,a0
    3980:	00400593          	li	a1,4
    3984:	f68fc0ef          	jal	ra,ec 
    3988:	00905c63          	blez	s1,39a0 
    398c:	00050593          	mv	a1,a0
    3990:	0085a023          	sw	s0,0(a1)
    3994:	fff48493          	addi	s1,s1,-1
    3998:	00458593          	addi	a1,a1,4
    399c:	fe049ae3          	bnez	s1,3990 
    39a0:	00c12083          	lw	ra,12(sp)
    39a4:	00812403          	lw	s0,8(sp)
    39a8:	00412483          	lw	s1,4(sp)
    39ac:	01010113          	addi	sp,sp,16
    39b0:	00008067          	ret

00000000000039b4 :
    39b4:	ff010113          	addi	sp,sp,-16
    39b8:	00112623          	sw	ra,12(sp)
    39bc:	00812423          	sw	s0,8(sp)
    39c0:	00912223          	sw	s1,4(sp)
    39c4:	00058413          	mv	s0,a1
    39c8:	00050493          	mv	s1,a0
    39cc:	00400593          	li	a1,4
    39d0:	f1cfc0ef          	jal	ra,ec 
    39d4:	00905c63          	blez	s1,39ec 
    39d8:	00050593          	mv	a1,a0
    39dc:	0085a023          	sw	s0,0(a1)
    39e0:	fff48493          	addi	s1,s1,-1
    39e4:	00458593          	addi	a1,a1,4
    39e8:	fe049ae3          	bnez	s1,39dc 
    39ec:	00c12083          	lw	ra,12(sp)
    39f0:	00812403          	lw	s0,8(sp)
    39f4:	00412483          	lw	s1,4(sp)
    39f8:	01010113          	addi	sp,sp,16
    39fc:	00008067          	ret

0000000000003a00 :
    3a00:	ff010113          	addi	sp,sp,-16
    3a04:	00112623          	sw	ra,12(sp)
    3a08:	00812423          	sw	s0,8(sp)
    3a0c:	00912223          	sw	s1,4(sp)
    3a10:	00058493          	mv	s1,a1
    3a14:	00050413          	mv	s0,a0
    3a18:	00400593          	li	a1,4
    3a1c:	ed0fc0ef          	jal	ra,ec 
    3a20:	00805e63          	blez	s0,3a3c 
    3a24:	f00487d3          	fmv.w.x	fa5,s1
    3a28:	00050593          	mv	a1,a0
    3a2c:	00f5a027          	fsw	fa5,0(a1)
    3a30:	fff40413          	addi	s0,s0,-1
    3a34:	00458593          	addi	a1,a1,4
    3a38:	fe041ae3          	bnez	s0,3a2c 
    3a3c:	00c12083          	lw	ra,12(sp)
    3a40:	00812403          	lw	s0,8(sp)
    3a44:	00412483          	lw	s1,4(sp)
    3a48:	01010113          	addi	sp,sp,16
    3a4c:	00008067          	ret

0000000000003a50 :
    3a50:	ff010113          	addi	sp,sp,-16
    3a54:	00112623          	sw	ra,12(sp)
    3a58:	002ec537          	lui	a0,0x2ec
    3a5c:	79350513          	addi	a0,a0,1939 # 2ec793 
    3a60:	00810593          	addi	a1,sp,8
    3a64:	eb0fc0ef          	jal	ra,114 
    3a68:	00812503          	lw	a0,8(sp)
    3a6c:	00c12083          	lw	ra,12(sp)
    3a70:	01010113          	addi	sp,sp,16
    3a74:	00008067          	ret

0000000000003a78 :
    3a78:	00010537          	lui	a0,0x10
    3a7c:	0cc52583          	lw	a1,204(a0) # 100cc 
    3a80:	00158613          	addi	a2,a1,1
    3a84:	0cc52623          	sw	a2,204(a0)
    3a88:	00010537          	lui	a0,0x10
    3a8c:	0d050513          	addi	a0,a0,208 # 100d0 
    3a90:	00b50533          	add	a0,a0,a1
    3a94:	00a00593          	li	a1,10
    3a98:	00b50023          	sb	a1,0(a0)
    3a9c:	00008067          	ret

0000000000003aa0 :
    3aa0:	f00507d3          	fmv.w.x	fa5,a0
    3aa4:	10f7f753          	fmul.s	fa4,fa5,fa5
    3aa8:	f00006d3          	fmv.w.x	fa3,zero
    3aac:	002ec537          	lui	a0,0x2ec
    3ab0:	7ec52607          	flw	fa2,2028(a0) # 2ec7ec 
    3ab4:	00d7f6d3          	fadd.s	fa3,fa5,fa3
    3ab8:	002ec537          	lui	a0,0x2ec
    3abc:	7f052587          	flw	fa1,2032(a0) # 2ec7f0 
    3ac0:	10c77653          	fmul.s	fa2,fa4,fa2
    3ac4:	10f677d3          	fmul.s	fa5,fa2,fa5
    3ac8:	00f6f6d3          	fadd.s	fa3,fa3,fa5
    3acc:	10b77653          	fmul.s	fa2,fa4,fa1
    3ad0:	10c7f7d3          	fmul.s	fa5,fa5,fa2
    3ad4:	002ec537          	lui	a0,0x2ec
    3ad8:	7f452607          	flw	fa2,2036(a0) # 2ec7f4 
    3adc:	00f6f6d3          	fadd.s	fa3,fa3,fa5
    3ae0:	002ec537          	lui	a0,0x2ec
    3ae4:	7f852587          	flw	fa1,2040(a0) # 2ec7f8 
    3ae8:	10c77653          	fmul.s	fa2,fa4,fa2
    3aec:	10c7f7d3          	fmul.s	fa5,fa5,fa2
    3af0:	00f6f6d3          	fadd.s	fa3,fa3,fa5
    3af4:	10b77753          	fmul.s	fa4,fa4,fa1
    3af8:	10e7f7d3          	fmul.s	fa5,fa5,fa4
    3afc:	00f6f7d3          	fadd.s	fa5,fa3,fa5
    3b00:	e0078553          	fmv.x.w	a0,fa5
    3b04:	00008067          	ret

0000000000003b08 :
    3b08:	f00507d3          	fmv.w.x	fa5,a0
    3b0c:	10f7f7d3          	fmul.s	fa5,fa5,fa5
    3b10:	bf000537          	lui	a0,0xbf000
    3b14:	f0050753          	fmv.w.x	fa4,a0
    3b18:	10e7f753          	fmul.s	fa4,fa5,fa4
    3b1c:	002ec537          	lui	a0,0x2ec
    3b20:	7fc52687          	flw	fa3,2044(a0) # 2ec7fc 
    3b24:	3f800537          	lui	a0,0x3f800
    3b28:	f0050653          	fmv.w.x	fa2,a0
    3b2c:	00c77653          	fadd.s	fa2,fa4,fa2
    3b30:	10d7f6d3          	fmul.s	fa3,fa5,fa3
    3b34:	10d77753          	fmul.s	fa4,fa4,fa3
    3b38:	002ed537          	lui	a0,0x2ed
    3b3c:	80052687          	flw	fa3,-2048(a0) # 2ec800 
    3b40:	00e67653          	fadd.s	fa2,fa2,fa4
    3b44:	002ed537          	lui	a0,0x2ed
    3b48:	80452587          	flw	fa1,-2044(a0) # 2ec804 
    3b4c:	10d7f6d3          	fmul.s	fa3,fa5,fa3
    3b50:	10d77753          	fmul.s	fa4,fa4,fa3
    3b54:	00e676d3          	fadd.s	fa3,fa2,fa4
    3b58:	10b7f7d3          	fmul.s	fa5,fa5,fa1
    3b5c:	10f777d3          	fmul.s	fa5,fa4,fa5
    3b60:	00f6f7d3          	fadd.s	fa5,fa3,fa5
    3b64:	e0078553          	fmv.x.w	a0,fa5
    3b68:	00008067          	ret

0000000000003b6c :
    3b6c:	ff010113          	addi	sp,sp,-16
    3b70:	00112623          	sw	ra,12(sp)
    3b74:	00812423          	sw	s0,8(sp)
    3b78:	f00507d3          	fmv.w.x	fa5,a0
    3b7c:	f0000753          	fmv.w.x	fa4,zero
    3b80:	a0f70553          	fle.s	a0,fa4,fa5
    3b84:	02051063          	bnez	a0,3ba4 
    3b88:	e0078553          	fmv.x.w	a0,fa5
    3b8c:	80000437          	lui	s0,0x80000
    3b90:	00854533          	xor	a0,a0,s0
    3b94:	fd9ff0ef          	jal	ra,3b6c 
    3b98:	00854533          	xor	a0,a0,s0
    3b9c:	f00507d3          	fmv.w.x	fa5,a0
    3ba0:	1a40006f          	j	3d44 
    3ba4:	002ed537          	lui	a0,0x2ed
    3ba8:	80852687          	flw	fa3,-2040(a0) # 2ec808 
    3bac:	a0f69553          	flt.s	a0,fa3,fa5
    3bb0:	00050c63          	beqz	a0,3bc8 
    3bb4:	002ed537          	lui	a0,0x2ed
    3bb8:	80c52607          	flw	fa2,-2036(a0) # 2ec80c 
    3bbc:	00c7f7d3          	fadd.s	fa5,fa5,fa2
    3bc0:	a0f69553          	flt.s	a0,fa3,fa5
    3bc4:	fe051ce3          	bnez	a0,3bbc 
    3bc8:	002ed537          	lui	a0,0x2ed
    3bcc:	81052687          	flw	fa3,-2032(a0) # 2ec810 
    3bd0:	a0d79553          	flt.s	a0,fa5,fa3
    3bd4:	06050063          	beqz	a0,3c34 
    3bd8:	10f7f6d3          	fmul.s	fa3,fa5,fa5
    3bdc:	002ed537          	lui	a0,0x2ed
    3be0:	83452607          	flw	fa2,-1996(a0) # 2ec834 
    3be4:	00e7f753          	fadd.s	fa4,fa5,fa4
    3be8:	002ed537          	lui	a0,0x2ed
    3bec:	83852587          	flw	fa1,-1992(a0) # 2ec838 
    3bf0:	10c6f653          	fmul.s	fa2,fa3,fa2
    3bf4:	10c7f7d3          	fmul.s	fa5,fa5,fa2
    3bf8:	00f77753          	fadd.s	fa4,fa4,fa5
    3bfc:	10b6f653          	fmul.s	fa2,fa3,fa1
    3c00:	10f677d3          	fmul.s	fa5,fa2,fa5
    3c04:	002ed537          	lui	a0,0x2ed
    3c08:	83c52607          	flw	fa2,-1988(a0) # 2ec83c 
    3c0c:	00f77753          	fadd.s	fa4,fa4,fa5
    3c10:	002ed537          	lui	a0,0x2ed
    3c14:	84052587          	flw	fa1,-1984(a0) # 2ec840 
    3c18:	10c6f653          	fmul.s	fa2,fa3,fa2
    3c1c:	10f677d3          	fmul.s	fa5,fa2,fa5
    3c20:	00f77753          	fadd.s	fa4,fa4,fa5
    3c24:	10b6f6d3          	fmul.s	fa3,fa3,fa1
    3c28:	10f6f7d3          	fmul.s	fa5,fa3,fa5
    3c2c:	00f777d3          	fadd.s	fa5,fa4,fa5
    3c30:	1140006f          	j	3d44 
    3c34:	002ed537          	lui	a0,0x2ed
    3c38:	81452707          	flw	fa4,-2028(a0) # 2ec814 
    3c3c:	a0e79553          	flt.s	a0,fa5,fa4
    3c40:	00050663          	beqz	a0,3c4c 
    3c44:	08f777d3          	fsub.s	fa5,fa4,fa5
    3c48:	0200006f          	j	3c68 
    3c4c:	002ed537          	lui	a0,0x2ed
    3c50:	81852707          	flw	fa4,-2024(a0) # 2ec818 
    3c54:	a0e79553          	flt.s	a0,fa5,fa4
    3c58:	06050663          	beqz	a0,3cc4 
    3c5c:	002ed537          	lui	a0,0x2ed
    3c60:	83052707          	flw	fa4,-2000(a0) # 2ec830 
    3c64:	00e7f7d3          	fadd.s	fa5,fa5,fa4
    3c68:	10f7f7d3          	fmul.s	fa5,fa5,fa5
    3c6c:	bf000537          	lui	a0,0xbf000
    3c70:	f0050753          	fmv.w.x	fa4,a0
    3c74:	10e7f753          	fmul.s	fa4,fa5,fa4
    3c78:	002ed537          	lui	a0,0x2ed
    3c7c:	82452687          	flw	fa3,-2012(a0) # 2ec824 
    3c80:	3f800537          	lui	a0,0x3f800
    3c84:	f0050653          	fmv.w.x	fa2,a0
    3c88:	00c77653          	fadd.s	fa2,fa4,fa2
    3c8c:	10d7f6d3          	fmul.s	fa3,fa5,fa3
    3c90:	10d77753          	fmul.s	fa4,fa4,fa3
    3c94:	002ed537          	lui	a0,0x2ed
    3c98:	82852687          	flw	fa3,-2008(a0) # 2ec828 
    3c9c:	00e67653          	fadd.s	fa2,fa2,fa4
    3ca0:	002ed537          	lui	a0,0x2ed
    3ca4:	82c52587          	flw	fa1,-2004(a0) # 2ec82c 
    3ca8:	10d7f6d3          	fmul.s	fa3,fa5,fa3
    3cac:	10e6f753          	fmul.s	fa4,fa3,fa4
    3cb0:	00e676d3          	fadd.s	fa3,fa2,fa4
    3cb4:	10b7f7d3          	fmul.s	fa5,fa5,fa1
    3cb8:	10e7f7d3          	fmul.s	fa5,fa5,fa4
    3cbc:	00f6f7d3          	fadd.s	fa5,fa3,fa5
    3cc0:	0840006f          	j	3d44 
    3cc4:	002ed537          	lui	a0,0x2ed
    3cc8:	81c52707          	flw	fa4,-2020(a0) # 2ec81c 
    3ccc:	a0e79553          	flt.s	a0,fa5,fa4
    3cd0:	00050663          	beqz	a0,3cdc 
    3cd4:	08f777d3          	fsub.s	fa5,fa4,fa5
    3cd8:	0100006f          	j	3ce8 
    3cdc:	002ed537          	lui	a0,0x2ed
    3ce0:	82052707          	flw	fa4,-2016(a0) # 2ec820 
    3ce4:	00e7f7d3          	fadd.s	fa5,fa5,fa4
    3ce8:	10f7f7d3          	fmul.s	fa5,fa5,fa5
    3cec:	bf000537          	lui	a0,0xbf000
    3cf0:	f0050753          	fmv.w.x	fa4,a0
    3cf4:	10e7f753          	fmul.s	fa4,fa5,fa4
    3cf8:	002ed537          	lui	a0,0x2ed
    3cfc:	82452687          	flw	fa3,-2012(a0) # 2ec824 
    3d00:	3f800537          	lui	a0,0x3f800
    3d04:	f0050653          	fmv.w.x	fa2,a0
    3d08:	00c77653          	fadd.s	fa2,fa4,fa2
    3d0c:	10d7f6d3          	fmul.s	fa3,fa5,fa3
    3d10:	10d77753          	fmul.s	fa4,fa4,fa3
    3d14:	002ed537          	lui	a0,0x2ed
    3d18:	82852687          	flw	fa3,-2008(a0) # 2ec828 
    3d1c:	00e67653          	fadd.s	fa2,fa2,fa4
    3d20:	002ed537          	lui	a0,0x2ed
    3d24:	82c52587          	flw	fa1,-2004(a0) # 2ec82c 
    3d28:	10d7f6d3          	fmul.s	fa3,fa5,fa3
    3d2c:	10e6f753          	fmul.s	fa4,fa3,fa4
    3d30:	00e676d3          	fadd.s	fa3,fa2,fa4
    3d34:	10b7f7d3          	fmul.s	fa5,fa5,fa1
    3d38:	10e7f7d3          	fmul.s	fa5,fa5,fa4
    3d3c:	00f6f7d3          	fadd.s	fa5,fa3,fa5
    3d40:	20f797d3          	fneg.s	fa5,fa5
    3d44:	e0078553          	fmv.x.w	a0,fa5
    3d48:	00c12083          	lw	ra,12(sp)
    3d4c:	00812403          	lw	s0,8(sp)
    3d50:	01010113          	addi	sp,sp,16
    3d54:	00008067          	ret

0000000000003d58 :
    3d58:	002ed5b7          	lui	a1,0x2ed
    3d5c:	8445a787          	flw	fa5,-1980(a1) # 2ec844 
    3d60:	f0050753          	fmv.w.x	fa4,a0
    3d64:	00f777d3          	fadd.s	fa5,fa4,fa5
    3d68:	e0078553          	fmv.x.w	a0,fa5
    3d6c:	e01ff06f          	j	3b6c 

0000000000003d70 :
    3d70:	f00507d3          	fmv.w.x	fa5,a0
    3d74:	5807f753          	fsqrt.s	fa4,fa5
    3d78:	a0e72553          	feq.s	a0,fa4,fa4
    3d7c:	00050663          	beqz	a0,3d88 
    3d80:	e0070553          	fmv.x.w	a0,fa4
    3d84:	00008067          	ret
    3d88:	e0078553          	fmv.x.w	a0,fa5
    3d8c:	b78fc06f          	j	104 

0000000000003d90 :
    3d90:	f00507d3          	fmv.w.x	fa5,a0
    3d94:	10f7f753          	fmul.s	fa4,fa5,fa5
    3d98:	002ed537          	lui	a0,0x2ed
    3d9c:	84852687          	flw	fa3,-1976(a0) # 2ec848 
    3da0:	f0000653          	fmv.w.x	fa2,zero
    3da4:	00c7f653          	fadd.s	fa2,fa5,fa2
    3da8:	10f777d3          	fmul.s	fa5,fa4,fa5
    3dac:	60d7f6c3          	fmadd.s	fa3,fa5,fa3,fa2
    3db0:	002ed537          	lui	a0,0x2ed
    3db4:	84c52607          	flw	fa2,-1972(a0) # 2ec84c 
    3db8:	002ed537          	lui	a0,0x2ed
    3dbc:	85052587          	flw	fa1,-1968(a0) # 2ec850 
    3dc0:	10f777d3          	fmul.s	fa5,fa4,fa5
    3dc4:	68c7f6c3          	fmadd.s	fa3,fa5,fa2,fa3
    3dc8:	10f777d3          	fmul.s	fa5,fa4,fa5
    3dcc:	68b7f6c3          	fmadd.s	fa3,fa5,fa1,fa3
    3dd0:	002ed537          	lui	a0,0x2ed
    3dd4:	85452607          	flw	fa2,-1964(a0) # 2ec854 
    3dd8:	002ed537          	lui	a0,0x2ed
    3ddc:	85852587          	flw	fa1,-1960(a0) # 2ec858 
    3de0:	10f777d3          	fmul.s	fa5,fa4,fa5
    3de4:	68c7f6c3          	fmadd.s	fa3,fa5,fa2,fa3
    3de8:	10f777d3          	fmul.s	fa5,fa4,fa5
    3dec:	68b7f6c3          	fmadd.s	fa3,fa5,fa1,fa3
    3df0:	002ed537          	lui	a0,0x2ed
    3df4:	85c52607          	flw	fa2,-1956(a0) # 2ec85c 
    3df8:	002ed537          	lui	a0,0x2ed
    3dfc:	86052587          	flw	fa1,-1952(a0) # 2ec860 
    3e00:	10f777d3          	fmul.s	fa5,fa4,fa5
    3e04:	68c7f6c3          	fmadd.s	fa3,fa5,fa2,fa3
    3e08:	10f777d3          	fmul.s	fa5,fa4,fa5
    3e0c:	68b7f6c3          	fmadd.s	fa3,fa5,fa1,fa3
    3e10:	002ed537          	lui	a0,0x2ed
    3e14:	86452607          	flw	fa2,-1948(a0) # 2ec864 
    3e18:	002ed537          	lui	a0,0x2ed
    3e1c:	86852587          	flw	fa1,-1944(a0) # 2ec868 
    3e20:	10f777d3          	fmul.s	fa5,fa4,fa5
    3e24:	68c7f6c3          	fmadd.s	fa3,fa5,fa2,fa3
    3e28:	10f777d3          	fmul.s	fa5,fa4,fa5
    3e2c:	68b7f7c3          	fmadd.s	fa5,fa5,fa1,fa3
    3e30:	e0078553          	fmv.x.w	a0,fa5
    3e34:	00008067          	ret

0000000000003e38 :
    3e38:	f0050753          	fmv.w.x	fa4,a0
    3e3c:	f00007d3          	fmv.w.x	fa5,zero
    3e40:	a0e78553          	fle.s	a0,fa5,fa4
    3e44:	02051e63          	bnez	a0,3e80 
    3e48:	ff010113          	addi	sp,sp,-16
    3e4c:	00112623          	sw	ra,12(sp)
    3e50:	00812423          	sw	s0,8(sp)
    3e54:	e0070553          	fmv.x.w	a0,fa4
    3e58:	80000437          	lui	s0,0x80000
    3e5c:	00854533          	xor	a0,a0,s0
    3e60:	fd9ff0ef          	jal	ra,3e38 
    3e64:	00854533          	xor	a0,a0,s0
    3e68:	f00507d3          	fmv.w.x	fa5,a0
    3e6c:	00c12083          	lw	ra,12(sp)
    3e70:	00812403          	lw	s0,8(sp)
    3e74:	01010113          	addi	sp,sp,16
    3e78:	e0078553          	fmv.x.w	a0,fa5
    3e7c:	00008067          	ret
    3e80:	002ed537          	lui	a0,0x2ed
    3e84:	86c52687          	flw	fa3,-1940(a0) # 2ec86c 
    3e88:	a0d71553          	flt.s	a0,fa4,fa3
    3e8c:	0a050263          	beqz	a0,3f30 
    3e90:	002ed537          	lui	a0,0x2ed
    3e94:	87452687          	flw	fa3,-1932(a0) # 2ec874 
    3e98:	10e77653          	fmul.s	fa2,fa4,fa4
    3e9c:	00f777d3          	fadd.s	fa5,fa4,fa5
    3ea0:	10e67753          	fmul.s	fa4,fa2,fa4
    3ea4:	78d777c3          	fmadd.s	fa5,fa4,fa3,fa5
    3ea8:	002ed537          	lui	a0,0x2ed
    3eac:	87852687          	flw	fa3,-1928(a0) # 2ec878 
    3eb0:	002ed537          	lui	a0,0x2ed
    3eb4:	87c52587          	flw	fa1,-1924(a0) # 2ec87c 
    3eb8:	10e67753          	fmul.s	fa4,fa2,fa4
    3ebc:	78d777c3          	fmadd.s	fa5,fa4,fa3,fa5
    3ec0:	10e67753          	fmul.s	fa4,fa2,fa4
    3ec4:	78b777c3          	fmadd.s	fa5,fa4,fa1,fa5
    3ec8:	002ed537          	lui	a0,0x2ed
    3ecc:	88052687          	flw	fa3,-1920(a0) # 2ec880 
    3ed0:	002ed537          	lui	a0,0x2ed
    3ed4:	88452587          	flw	fa1,-1916(a0) # 2ec884 
    3ed8:	10e67753          	fmul.s	fa4,fa2,fa4
    3edc:	78d777c3          	fmadd.s	fa5,fa4,fa3,fa5
    3ee0:	10e67753          	fmul.s	fa4,fa2,fa4
    3ee4:	78b777c3          	fmadd.s	fa5,fa4,fa1,fa5
    3ee8:	002ed537          	lui	a0,0x2ed
    3eec:	88852687          	flw	fa3,-1912(a0) # 2ec888 
    3ef0:	002ed537          	lui	a0,0x2ed
    3ef4:	88c52587          	flw	fa1,-1908(a0) # 2ec88c 
    3ef8:	10e67753          	fmul.s	fa4,fa2,fa4
    3efc:	78d777c3          	fmadd.s	fa5,fa4,fa3,fa5
    3f00:	10e67753          	fmul.s	fa4,fa2,fa4
    3f04:	78b777c3          	fmadd.s	fa5,fa4,fa1,fa5
    3f08:	002ed537          	lui	a0,0x2ed
    3f0c:	89052687          	flw	fa3,-1904(a0) # 2ec890 
    3f10:	002ed537          	lui	a0,0x2ed
    3f14:	89452587          	flw	fa1,-1900(a0) # 2ec894 
    3f18:	10e67753          	fmul.s	fa4,fa2,fa4
    3f1c:	78d777c3          	fmadd.s	fa5,fa4,fa3,fa5
    3f20:	10e67753          	fmul.s	fa4,fa2,fa4
    3f24:	78b777c3          	fmadd.s	fa5,fa4,fa1,fa5
    3f28:	e0078553          	fmv.x.w	a0,fa5
    3f2c:	00008067          	ret
    3f30:	3f800537          	lui	a0,0x3f800
    3f34:	f00506d3          	fmv.w.x	fa3,a0
    3f38:	a0d71553          	flt.s	a0,fa4,fa3
    3f3c:	0a050863          	beqz	a0,3fec 
    3f40:	bf800537          	lui	a0,0xbf800
    3f44:	f0050653          	fmv.w.x	fa2,a0
    3f48:	00c77653          	fadd.s	fa2,fa4,fa2
    3f4c:	00d77753          	fadd.s	fa4,fa4,fa3
    3f50:	18e67753          	fdiv.s	fa4,fa2,fa4
    3f54:	002ed537          	lui	a0,0x2ed
    3f58:	87452687          	flw	fa3,-1932(a0) # 2ec874 
    3f5c:	10e77653          	fmul.s	fa2,fa4,fa4
    3f60:	00f777d3          	fadd.s	fa5,fa4,fa5
    3f64:	10c77753          	fmul.s	fa4,fa4,fa2
    3f68:	78d777c3          	fmadd.s	fa5,fa4,fa3,fa5
    3f6c:	002ed537          	lui	a0,0x2ed
    3f70:	87852687          	flw	fa3,-1928(a0) # 2ec878 
    3f74:	002ed537          	lui	a0,0x2ed
    3f78:	87c52587          	flw	fa1,-1924(a0) # 2ec87c 
    3f7c:	10e67753          	fmul.s	fa4,fa2,fa4
    3f80:	78d777c3          	fmadd.s	fa5,fa4,fa3,fa5
    3f84:	10e67753          	fmul.s	fa4,fa2,fa4
    3f88:	78b777c3          	fmadd.s	fa5,fa4,fa1,fa5
    3f8c:	002ed537          	lui	a0,0x2ed
    3f90:	88052687          	flw	fa3,-1920(a0) # 2ec880 
    3f94:	002ed537          	lui	a0,0x2ed
    3f98:	88452587          	flw	fa1,-1916(a0) # 2ec884 
    3f9c:	10e67753          	fmul.s	fa4,fa2,fa4
    3fa0:	78d777c3          	fmadd.s	fa5,fa4,fa3,fa5
    3fa4:	10e67753          	fmul.s	fa4,fa2,fa4
    3fa8:	78b777c3          	fmadd.s	fa5,fa4,fa1,fa5
    3fac:	002ed537          	lui	a0,0x2ed
    3fb0:	88852687          	flw	fa3,-1912(a0) # 2ec888 
    3fb4:	002ed537          	lui	a0,0x2ed
    3fb8:	88c52587          	flw	fa1,-1908(a0) # 2ec88c 
    3fbc:	10e67753          	fmul.s	fa4,fa2,fa4
    3fc0:	78d777c3          	fmadd.s	fa5,fa4,fa3,fa5
    3fc4:	10e67753          	fmul.s	fa4,fa2,fa4
    3fc8:	78b777c3          	fmadd.s	fa5,fa4,fa1,fa5
    3fcc:	10e67753          	fmul.s	fa4,fa2,fa4
    3fd0:	002ed537          	lui	a0,0x2ed
    3fd4:	89052687          	flw	fa3,-1904(a0) # 2ec890 
    3fd8:	002ed537          	lui	a0,0x2ed
    3fdc:	89452587          	flw	fa1,-1900(a0) # 2ec894 
    3fe0:	002ed537          	lui	a0,0x2ed
    3fe4:	89c52507          	flw	fa0,-1892(a0) # 2ec89c 
    3fe8:	0d00006f          	j	40b8 
    3fec:	002ed537          	lui	a0,0x2ed
    3ff0:	87052687          	flw	fa3,-1936(a0) # 2ec870 
    3ff4:	a0d71553          	flt.s	a0,fa4,fa3
    3ff8:	02050063          	beqz	a0,4018 
    3ffc:	bf800537          	lui	a0,0xbf800
    4000:	f00506d3          	fmv.w.x	fa3,a0
    4004:	00d776d3          	fadd.s	fa3,fa4,fa3
    4008:	3f800537          	lui	a0,0x3f800
    400c:	f0050653          	fmv.w.x	fa2,a0
    4010:	00c77753          	fadd.s	fa4,fa4,fa2
    4014:	00c0006f          	j	4020 
    4018:	bf800537          	lui	a0,0xbf800
    401c:	f00506d3          	fmv.w.x	fa3,a0
    4020:	18e6f753          	fdiv.s	fa4,fa3,fa4
    4024:	002ed537          	lui	a0,0x2ed
    4028:	87452687          	flw	fa3,-1932(a0) # 2ec874 
    402c:	10e77653          	fmul.s	fa2,fa4,fa4
    4030:	00f777d3          	fadd.s	fa5,fa4,fa5
    4034:	10c77753          	fmul.s	fa4,fa4,fa2
    4038:	78d777c3          	fmadd.s	fa5,fa4,fa3,fa5
    403c:	002ed537          	lui	a0,0x2ed
    4040:	87852687          	flw	fa3,-1928(a0) # 2ec878 
    4044:	002ed537          	lui	a0,0x2ed
    4048:	87c52587          	flw	fa1,-1924(a0) # 2ec87c 
    404c:	10e67753          	fmul.s	fa4,fa2,fa4
    4050:	78d777c3          	fmadd.s	fa5,fa4,fa3,fa5
    4054:	10e67753          	fmul.s	fa4,fa2,fa4
    4058:	78b777c3          	fmadd.s	fa5,fa4,fa1,fa5
    405c:	002ed537          	lui	a0,0x2ed
    4060:	88052687          	flw	fa3,-1920(a0) # 2ec880 
    4064:	002ed537          	lui	a0,0x2ed
    4068:	88452587          	flw	fa1,-1916(a0) # 2ec884 
    406c:	10e67753          	fmul.s	fa4,fa2,fa4
    4070:	78d777c3          	fmadd.s	fa5,fa4,fa3,fa5
    4074:	10e67753          	fmul.s	fa4,fa2,fa4
    4078:	78b777c3          	fmadd.s	fa5,fa4,fa1,fa5
    407c:	002ed537          	lui	a0,0x2ed
    4080:	88852687          	flw	fa3,-1912(a0) # 2ec888 
    4084:	002ed537          	lui	a0,0x2ed
    4088:	88c52587          	flw	fa1,-1908(a0) # 2ec88c 
    408c:	10e67753          	fmul.s	fa4,fa2,fa4
    4090:	78d777c3          	fmadd.s	fa5,fa4,fa3,fa5
    4094:	10e67753          	fmul.s	fa4,fa2,fa4
    4098:	78b777c3          	fmadd.s	fa5,fa4,fa1,fa5
    409c:	10e67753          	fmul.s	fa4,fa2,fa4
    40a0:	002ed537          	lui	a0,0x2ed
    40a4:	89052687          	flw	fa3,-1904(a0) # 2ec890 
    40a8:	002ed537          	lui	a0,0x2ed
    40ac:	89452587          	flw	fa1,-1900(a0) # 2ec894 
    40b0:	002ed537          	lui	a0,0x2ed
    40b4:	89852507          	flw	fa0,-1896(a0) # 2ec898 
    40b8:	78d777c3          	fmadd.s	fa5,fa4,fa3,fa5
    40bc:	10e67753          	fmul.s	fa4,fa2,fa4
    40c0:	78b777c3          	fmadd.s	fa5,fa4,fa1,fa5
    40c4:	00a7f7d3          	fadd.s	fa5,fa5,fa0
    40c8:	e0078553          	fmv.x.w	a0,fa5
    40cc:	00008067          	ret

00000000000040d0 :
    40d0:	f0050753          	fmv.w.x	fa4,a0
    40d4:	c0071553          	fcvt.w.s	a0,fa4,rtz
    40d8:	d00577d3          	fcvt.s.w	fa5,a0
    40dc:	a0f715d3          	flt.s	a1,fa4,fa5
    40e0:	00058663          	beqz	a1,40ec 
    40e4:	fff50513          	addi	a0,a0,-1
    40e8:	d00577d3          	fcvt.s.w	fa5,a0
    40ec:	e0078553          	fmv.x.w	a0,fa5
    40f0:	00008067          	ret

00000000000040f4 :
    40f4:	ff010113          	addi	sp,sp,-16
    40f8:	00112623          	sw	ra,12(sp)
    40fc:	00812423          	sw	s0,8(sp)
    4100:	00912223          	sw	s1,4(sp)
    4104:	01212023          	sw	s2,0(sp)
    4108:	00010437          	lui	s0,0x10
    410c:	0cc42503          	lw	a0,204(s0) # 100cc 
    4110:	02050463          	beqz	a0,4138 
    4114:	00000493          	li	s1,0
    4118:	00010537          	lui	a0,0x10
    411c:	0d050913          	addi	s2,a0,208 # 100d0 
    4120:	00990533          	add	a0,s2,s1
    4124:	00054503          	lbu	a0,0(a0)
    4128:	fd5fb0ef          	jal	ra,fc 
    412c:	0cc42503          	lw	a0,204(s0)
    4130:	00148493          	addi	s1,s1,1
    4134:	fea4e6e3          	bltu	s1,a0,4120 
    4138:	00c12083          	lw	ra,12(sp)
    413c:	00812403          	lw	s0,8(sp)
    4140:	00412483          	lw	s1,4(sp)
    4144:	00012903          	lw	s2,0(sp)
    4148:	01010113          	addi	sp,sp,16
    414c:	00008067          	ret

Disassembly of section .eh_frame:

0000000000004150 <.eh_frame>:
    4150:	0010                	0x10
    4152:	0000                	unimp
    4154:	0000                	unimp
    4156:	0000                	unimp
    4158:	7a01                	lui	s4,0xfffe0
    415a:	0052                	c.slli	zero,0x14
    415c:	7c01                	lui	s8,0xfffe0
    415e:	0101                	addi	sp,sp,0
    4160:	00020d1b          	sext.w	s10,tp
    4164:	0014                	0x14
    4166:	0000                	unimp
    4168:	0018                	0x18
    416a:	0000                	unimp
    416c:	c178                	sw	a4,68(a0)
    416e:	ffff                	0xffff
    4170:	0040                	addi	s0,sp,4
    4172:	0000                	unimp
    4174:	4400                	lw	s0,8(s0)
    4176:	100e                	c.slli	zero,0x23
    4178:	8144                	0x8144
    417a:	0001                	nop
    417c:	0010                	0x10
    417e:	0000                	unimp
    4180:	0030                	addi	a2,sp,8
    4182:	0000                	unimp
    4184:	c1a0                	sw	s0,64(a1)
    4186:	ffff                	0xffff
    4188:	0014                	0x14
    418a:	0000                	unimp
    418c:	0000                	unimp
    418e:	0000                	unimp
    4190:	0018                	0x18
    4192:	0000                	unimp
    4194:	0044                	addi	s1,sp,4
    4196:	0000                	unimp
    4198:	c274                	sw	a3,68(a2)
    419a:	ffff                	0xffff
    419c:	0088                	addi	a0,sp,64
    419e:	0000                	unimp
    41a0:	4400                	lw	s0,8(s0)
    41a2:	100e                	c.slli	zero,0x23
    41a4:	814c                	0x814c
    41a6:	8801                	andi	s0,s0,0
    41a8:	8902                	jr	s2
    41aa:	00200003          	lb	zero,2(zero) # 2 
    41ae:	0000                	unimp
    41b0:	0060                	addi	s0,sp,12
    41b2:	0000                	unimp
    41b4:	c320                	sw	s0,64(a4)
    41b6:	ffff                	0xffff
    41b8:	01ec                	addi	a1,sp,204
    41ba:	0000                	unimp
    41bc:	4400                	lw	s0,8(s0)
    41be:	200e                	fld	ft0,192(sp)
    41c0:	8158                	0x8158
    41c2:	8801                	andi	s0,s0,0
    41c4:	8902                	jr	s2
    41c6:	93049203          	lh	tp,-1744(s1)
    41ca:	9405                	srai	s0,s0,0x21
    41cc:	0006                	c.slli	zero,0x1
    41ce:	0000                	unimp
    41d0:	0030                	addi	a2,sp,8
    41d2:	0000                	unimp
    41d4:	0084                	addi	s1,sp,64
    41d6:	0000                	unimp
    41d8:	c4e8                	sw	a0,76(s1)
    41da:	ffff                	0xffff
    41dc:	0580                	addi	s0,sp,704
    41de:	0000                	unimp
    41e0:	4400                	lw	s0,8(s0)
    41e2:	500e                	0x500e
    41e4:	8174                	0x8174
    41e6:	8801                	andi	s0,s0,0
    41e8:	8902                	jr	s2
    41ea:	93049203          	lh	tp,-1744(s1)
    41ee:	9405                	srai	s0,s0,0x21
    41f0:	9506                	add	a0,a0,ra
    41f2:	97089607          	0x97089607
    41f6:	9809                	andi	s0,s0,-30
    41f8:	990a                	add	s2,s2,sp
    41fa:	9b0c9a0b          	0x9b0c9a0b
    41fe:	440d                	li	s0,3
    4200:	080c                	addi	a1,sp,16
    4202:	0000                	unimp
    4204:	0018                	0x18
    4206:	0000                	unimp
    4208:	00b8                	addi	a4,sp,72
    420a:	0000                	unimp
    420c:	ca34                	sw	a3,80(a2)
    420e:	ffff                	0xffff
    4210:	0044                	addi	s1,sp,4
    4212:	0000                	unimp
    4214:	4400                	lw	s0,8(s0)
    4216:	100e                	c.slli	zero,0x23
    4218:	814c                	0x814c
    421a:	8801                	andi	s0,s0,0
    421c:	8902                	jr	s2
    421e:	00180003          	lb	zero,1(a6)
    4222:	0000                	unimp
    4224:	00d4                	addi	a3,sp,68
    4226:	0000                	unimp
    4228:	ca5c                	sw	a5,20(a2)
    422a:	ffff                	0xffff
    422c:	0044                	addi	s1,sp,4
    422e:	0000                	unimp
    4230:	4400                	lw	s0,8(s0)
    4232:	100e                	c.slli	zero,0x23
    4234:	814c                	0x814c
    4236:	8801                	andi	s0,s0,0
    4238:	8902                	jr	s2
    423a:	00180003          	lb	zero,1(a6)
    423e:	0000                	unimp
    4240:	00f0                	addi	a2,sp,76
    4242:	0000                	unimp
    4244:	ca84                	sw	s1,16(a3)
    4246:	ffff                	0xffff
    4248:	0064                	addi	s1,sp,12
    424a:	0000                	unimp
    424c:	4400                	lw	s0,8(s0)
    424e:	100e                	c.slli	zero,0x23
    4250:	814c                	0x814c
    4252:	8801                	andi	s0,s0,0
    4254:	8902                	jr	s2
    4256:	00180003          	lb	zero,1(a6)
    425a:	0000                	unimp
    425c:	010c                	addi	a1,sp,128
    425e:	0000                	unimp
    4260:	cacc                	sw	a1,20(a3)
    4262:	ffff                	0xffff
    4264:	006c                	addi	a1,sp,12
    4266:	0000                	unimp
    4268:	4400                	lw	s0,8(s0)
    426a:	100e                	c.slli	zero,0x23
    426c:	814c                	0x814c
    426e:	8801                	andi	s0,s0,0
    4270:	8902                	jr	s2
    4272:	00180003          	lb	zero,1(a6)
    4276:	0000                	unimp
    4278:	0128                	addi	a0,sp,136
    427a:	0000                	unimp
    427c:	cb1c                	sw	a5,16(a4)
    427e:	ffff                	0xffff
    4280:	0064                	addi	s1,sp,12
    4282:	0000                	unimp
    4284:	4400                	lw	s0,8(s0)
    4286:	100e                	c.slli	zero,0x23
    4288:	814c                	0x814c
    428a:	8801                	andi	s0,s0,0
    428c:	8902                	jr	s2
    428e:	00180003          	lb	zero,1(a6)
    4292:	0000                	unimp
    4294:	0144                	addi	s1,sp,132
    4296:	0000                	unimp
    4298:	cb64                	sw	s1,84(a4)
    429a:	ffff                	0xffff
    429c:	0090                	addi	a2,sp,64
    429e:	0000                	unimp
    42a0:	4400                	lw	s0,8(s0)
    42a2:	100e                	c.slli	zero,0x23
    42a4:	814c                	0x814c
    42a6:	8801                	andi	s0,s0,0
    42a8:	8902                	jr	s2
    42aa:	001c0003          	lb	zero,1(s8) # fffffffffffe0001 <_sstack+0xffffffffffcf22d5>
    42ae:	0000                	unimp
    42b0:	0160                	addi	s0,sp,140
    42b2:	0000                	unimp
    42b4:	cbd8                	sw	a4,20(a5)
    42b6:	ffff                	0xffff
    42b8:	0254                	addi	a3,sp,260
    42ba:	0000                	unimp
    42bc:	4400                	lw	s0,8(s0)
    42be:	200e                	fld	ft0,192(sp)
    42c0:	8154                	0x8154
    42c2:	8801                	andi	s0,s0,0
    42c4:	8902                	jr	s2
    42c6:	93049203          	lh	tp,-1744(s1)
    42ca:	0005                	c.nop	1
    42cc:	0018                	0x18
    42ce:	0000                	unimp
    42d0:	0180                	addi	s0,sp,192
    42d2:	0000                	unimp
    42d4:	cfec                	sw	a1,92(a5)
    42d6:	ffff                	0xffff
    42d8:	0200                	addi	s0,sp,256
    42da:	0000                	unimp
    42dc:	4400                	lw	s0,8(s0)
    42de:	100e                	c.slli	zero,0x23
    42e0:	8148                	0x8148
    42e2:	8801                	andi	s0,s0,0
    42e4:	0002                	c.slli64	zero
    42e6:	0000                	unimp
    42e8:	001c                	0x1c
    42ea:	0000                	unimp
    42ec:	019c                	addi	a5,sp,192
    42ee:	0000                	unimp
    42f0:	d1d0                	sw	a2,36(a1)
    42f2:	ffff                	0xffff
    42f4:	014c                	addi	a1,sp,132
    42f6:	0000                	unimp
    42f8:	4400                	lw	s0,8(s0)
    42fa:	200e                	fld	ft0,192(sp)
    42fc:	8150                	0x8150
    42fe:	8801                	andi	s0,s0,0
    4300:	8902                	jr	s2
    4302:	00049203          	lh	tp,0(s1)
    4306:	0000                	unimp
    4308:	001c                	0x1c
    430a:	0000                	unimp
    430c:	01bc                	addi	a5,sp,200
    430e:	0000                	unimp
    4310:	d2fc                	sw	a5,100(a3)
    4312:	ffff                	0xffff
    4314:	00a4                	addi	s1,sp,72
    4316:	0000                	unimp
    4318:	4400                	lw	s0,8(s0)
    431a:	100e                	c.slli	zero,0x23
    431c:	8150                	0x8150
    431e:	8801                	andi	s0,s0,0
    4320:	8902                	jr	s2
    4322:	00049203          	lh	tp,0(s1)
    4326:	0000                	unimp
    4328:	0014                	0x14
    432a:	0000                	unimp
    432c:	01dc                	addi	a5,sp,196
    432e:	0000                	unimp
    4330:	d380                	sw	s0,32(a5)
    4332:	ffff                	0xffff
    4334:	005c                	addi	a5,sp,4
    4336:	0000                	unimp
    4338:	0200                	addi	s0,sp,256
    433a:	0e48                	addi	a0,sp,788
    433c:	4410                	lw	a2,8(s0)
    433e:	0181                	addi	gp,gp,0
    4340:	0014                	0x14
    4342:	0000                	unimp
    4344:	01f4                	addi	a3,sp,204
    4346:	0000                	unimp
    4348:	d3c4                	sw	s1,36(a5)
    434a:	ffff                	0xffff
    434c:	00b4                	addi	a3,sp,72
    434e:	0000                	unimp
    4350:	0200                	addi	s0,sp,256
    4352:	0e58                	addi	a4,sp,788
    4354:	4410                	lw	a2,8(s0)
    4356:	0181                	addi	gp,gp,0
    4358:	001c                	0x1c
    435a:	0000                	unimp
    435c:	020c                	addi	a1,sp,256
    435e:	0000                	unimp
    4360:	d460                	sw	s0,108(s0)
    4362:	ffff                	0xffff
    4364:	01b0                	addi	a2,sp,200
    4366:	0000                	unimp
    4368:	4400                	lw	s0,8(s0)
    436a:	100e                	c.slli	zero,0x23
    436c:	8150                	0x8150
    436e:	8801                	andi	s0,s0,0
    4370:	8902                	jr	s2
    4372:	00049203          	lh	tp,0(s1)
    4376:	0000                	unimp
    4378:	001c                	0x1c
    437a:	0000                	unimp
    437c:	022c                	addi	a1,sp,264
    437e:	0000                	unimp
    4380:	d5f0                	sw	a2,108(a1)
    4382:	ffff                	0xffff
    4384:	00b8                	addi	a4,sp,72
    4386:	0000                	unimp
    4388:	4400                	lw	s0,8(s0)
    438a:	200e                	fld	ft0,192(sp)
    438c:	8154                	0x8154
    438e:	8801                	andi	s0,s0,0
    4390:	8902                	jr	s2
    4392:	93049203          	lh	tp,-1744(s1)
    4396:	0005                	c.nop	1
    4398:	002c                	addi	a1,sp,8
    439a:	0000                	unimp
    439c:	024c                	addi	a1,sp,260
    439e:	0000                	unimp
    43a0:	d688                	sw	a0,40(a3)
    43a2:	ffff                	0xffff
    43a4:	01d0                	addi	a2,sp,196
    43a6:	0000                	unimp
    43a8:	4400                	lw	s0,8(s0)
    43aa:	400e                	0x400e
    43ac:	8170                	0x8170
    43ae:	8801                	andi	s0,s0,0
    43b0:	8902                	jr	s2
    43b2:	93049203          	lh	tp,-1744(s1)
    43b6:	9405                	srai	s0,s0,0x21
    43b8:	9506                	add	a0,a0,ra
    43ba:	97089607          	0x97089607
    43be:	9809                	andi	s0,s0,-30
    43c0:	990a                	add	s2,s2,sp
    43c2:	000c9a0b          	0xc9a0b
    43c6:	0000                	unimp
    43c8:	001c                	0x1c
    43ca:	0000                	unimp
    43cc:	027c                	addi	a5,sp,268
    43ce:	0000                	unimp
    43d0:	d828                	sw	a0,112(s0)
    43d2:	ffff                	0xffff
    43d4:	0090                	addi	a2,sp,64
    43d6:	0000                	unimp
    43d8:	4400                	lw	s0,8(s0)
    43da:	200e                	fld	ft0,192(sp)
    43dc:	8154                	0x8154
    43de:	8801                	andi	s0,s0,0
    43e0:	8902                	jr	s2
    43e2:	93049203          	lh	tp,-1744(s1)
    43e6:	0005                	c.nop	1
    43e8:	0028                	addi	a0,sp,8
    43ea:	0000                	unimp
    43ec:	029c                	addi	a5,sp,320
    43ee:	0000                	unimp
    43f0:	d898                	sw	a4,48(s1)
    43f2:	ffff                	0xffff
    43f4:	0158                	addi	a4,sp,132
    43f6:	0000                	unimp
    43f8:	4400                	lw	s0,8(s0)
    43fa:	300e                	fld	ft0,224(sp)
    43fc:	8168                	0x8168
    43fe:	8801                	andi	s0,s0,0
    4400:	8902                	jr	s2
    4402:	93049203          	lh	tp,-1744(s1)
    4406:	9405                	srai	s0,s0,0x21
    4408:	9506                	add	a0,a0,ra
    440a:	97089607          	0x97089607
    440e:	9809                	andi	s0,s0,-30
    4410:	000a                	c.slli	zero,0x2
    4412:	0000                	unimp
    4414:	002c                	addi	a1,sp,8
    4416:	0000                	unimp
    4418:	02c8                	addi	a0,sp,324
    441a:	0000                	unimp
    441c:	d9c4                	sw	s1,52(a1)
    441e:	ffff                	0xffff
    4420:	0274                	addi	a3,sp,268
    4422:	0000                	unimp
    4424:	4400                	lw	s0,8(s0)
    4426:	600e                	0x600e
    4428:	8174                	0x8174
    442a:	8801                	andi	s0,s0,0
    442c:	8902                	jr	s2
    442e:	93049203          	lh	tp,-1744(s1)
    4432:	9405                	srai	s0,s0,0x21
    4434:	9506                	add	a0,a0,ra
    4436:	97089607          	0x97089607
    443a:	9809                	andi	s0,s0,-30
    443c:	990a                	add	s2,s2,sp
    443e:	9b0c9a0b          	0x9b0c9a0b
    4442:	000d                	c.nop	3
    4444:	001c                	0x1c
    4446:	0000                	unimp
    4448:	02f8                	addi	a4,sp,332
    444a:	0000                	unimp
    444c:	dc08                	sw	a0,56(s0)
    444e:	ffff                	0xffff
    4450:	0080                	addi	s0,sp,64
    4452:	0000                	unimp
    4454:	4400                	lw	s0,8(s0)
    4456:	200e                	fld	ft0,192(sp)
    4458:	8154                	0x8154
    445a:	8801                	andi	s0,s0,0
    445c:	8902                	jr	s2
    445e:	93049203          	lh	tp,-1744(s1)
    4462:	0005                	c.nop	1
    4464:	002c                	addi	a1,sp,8
    4466:	0000                	unimp
    4468:	0318                	addi	a4,sp,384
    446a:	0000                	unimp
    446c:	dc68                	sw	a0,124(s0)
    446e:	ffff                	0xffff
    4470:	0154                	addi	a3,sp,132
    4472:	0000                	unimp
    4474:	4400                	lw	s0,8(s0)
    4476:	300e                	fld	ft0,224(sp)
    4478:	8170                	0x8170
    447a:	8801                	andi	s0,s0,0
    447c:	8902                	jr	s2
    447e:	93049203          	lh	tp,-1744(s1)
    4482:	9405                	srai	s0,s0,0x21
    4484:	9506                	add	a0,a0,ra
    4486:	97089607          	0x97089607
    448a:	9809                	andi	s0,s0,-30
    448c:	990a                	add	s2,s2,sp
    448e:	000c9a0b          	0xc9a0b
    4492:	0000                	unimp
    4494:	0018                	0x18
    4496:	0000                	unimp
    4498:	0348                	addi	a0,sp,388
    449a:	0000                	unimp
    449c:	dd8c                	sw	a1,56(a1)
    449e:	ffff                	0xffff
    44a0:	0064                	addi	s1,sp,12
    44a2:	0000                	unimp
    44a4:	4400                	lw	s0,8(s0)
    44a6:	100e                	c.slli	zero,0x23
    44a8:	8148                	0x8148
    44aa:	8801                	andi	s0,s0,0
    44ac:	0002                	c.slli64	zero
    44ae:	0000                	unimp
    44b0:	0018                	0x18
    44b2:	0000                	unimp
    44b4:	0364                	addi	s1,sp,396
    44b6:	0000                	unimp
    44b8:	deec                	sw	a1,124(a3)
    44ba:	ffff                	0xffff
    44bc:	00cc                	addi	a1,sp,68
    44be:	0000                	unimp
    44c0:	4400                	lw	s0,8(s0)
    44c2:	100e                	c.slli	zero,0x23
    44c4:	814c                	0x814c
    44c6:	8801                	andi	s0,s0,0
    44c8:	8902                	jr	s2
    44ca:	00180003          	lb	zero,1(a6)
    44ce:	0000                	unimp
    44d0:	0380                	addi	s0,sp,448
    44d2:	0000                	unimp
    44d4:	df9c                	sw	a5,56(a5)
    44d6:	ffff                	0xffff
    44d8:	0158                	addi	a4,sp,132
    44da:	0000                	unimp
    44dc:	4400                	lw	s0,8(s0)
    44de:	100e                	c.slli	zero,0x23
    44e0:	814c                	0x814c
    44e2:	8801                	andi	s0,s0,0
    44e4:	8902                	jr	s2
    44e6:	00180003          	lb	zero,1(a6)
    44ea:	0000                	unimp
    44ec:	039c                	addi	a5,sp,448
    44ee:	0000                	unimp
    44f0:	e0d8                	sd	a4,128(s1)
    44f2:	ffff                	0xffff
    44f4:	02c0                	addi	s0,sp,324
    44f6:	0000                	unimp
    44f8:	4400                	lw	s0,8(s0)
    44fa:	100e                	c.slli	zero,0x23
    44fc:	814c                	0x814c
    44fe:	8801                	andi	s0,s0,0
    4500:	8902                	jr	s2
    4502:	00200003          	lb	zero,2(zero) # 2 
    4506:	0000                	unimp
    4508:	03b8                	addi	a4,sp,456
    450a:	0000                	unimp
    450c:	e37c                	sd	a5,192(a4)
    450e:	ffff                	0xffff
    4510:	0400                	addi	s0,sp,512
    4512:	0000                	unimp
    4514:	4400                	lw	s0,8(s0)
    4516:	400e                	0x400e
    4518:	815c                	0x815c
    451a:	8801                	andi	s0,s0,0
    451c:	8902                	jr	s2
    451e:	93049203          	lh	tp,-1744(s1)
    4522:	9405                	srai	s0,s0,0x21
    4524:	9506                	add	a0,a0,ra
    4526:	002c0007          	0x2c0007
    452a:	0000                	unimp
    452c:	03dc                	addi	a5,sp,452
    452e:	0000                	unimp
    4530:	e7d0                	sd	a2,136(a5)
    4532:	ffff                	0xffff
    4534:	04f8                	addi	a4,sp,588
    4536:	0000                	unimp
    4538:	4400                	lw	s0,8(s0)
    453a:	a00e                	fsd	ft3,0(sp)
    453c:	7401                	lui	s0,0xfffe0
    453e:	0181                	addi	gp,gp,0
    4540:	0288                	addi	a0,sp,320
    4542:	0389                	addi	t2,t2,2
    4544:	0492                	slli	s1,s1,0x4
    4546:	06940593          	addi	a1,s0,105 # fffffffffffe0069 <_sstack+0xffffffffffcf233d>
    454a:	0795                	addi	a5,a5,5
    454c:	0896                	slli	a7,a7,0x5
    454e:	0a980997          	auipc	s3,0xa980
    4552:	0b99                	addi	s7,s7,6
    4554:	0c9a                	slli	s9,s9,0x6
    4556:	00180d9b          	addiw	s11,a6,1
    455a:	0000                	unimp
    455c:	040c                	addi	a1,sp,512
    455e:	0000                	unimp
    4560:	ec98                	sd	a4,24(s1)
    4562:	ffff                	0xffff
    4564:	0068                	addi	a0,sp,12
    4566:	0000                	unimp
    4568:	4400                	lw	s0,8(s0)
    456a:	100e                	c.slli	zero,0x23
    456c:	814c                	0x814c
    456e:	8801                	andi	s0,s0,0
    4570:	8902                	jr	s2
    4572:	00180003          	lb	zero,1(a6)
    4576:	0000                	unimp
    4578:	0428                	addi	a0,sp,520
    457a:	0000                	unimp
    457c:	ece4                	sd	s1,216(s1)
    457e:	ffff                	0xffff
    4580:	0068                	addi	a0,sp,12
    4582:	0000                	unimp
    4584:	4400                	lw	s0,8(s0)
    4586:	100e                	c.slli	zero,0x23
    4588:	8148                	0x8148
    458a:	8801                	andi	s0,s0,0
    458c:	0002                	c.slli64	zero
    458e:	0000                	unimp
    4590:	002c                	addi	a1,sp,8
    4592:	0000                	unimp
    4594:	0444                	addi	s1,sp,516
    4596:	0000                	unimp
    4598:	ed30                	sd	a2,88(a0)
    459a:	ffff                	0xffff
    459c:	021c                	addi	a5,sp,256
    459e:	0000                	unimp
    45a0:	4400                	lw	s0,8(s0)
    45a2:	400e                	0x400e
    45a4:	8174                	0x8174
    45a6:	8801                	andi	s0,s0,0
    45a8:	8902                	jr	s2
    45aa:	93049203          	lh	tp,-1744(s1)
    45ae:	9405                	srai	s0,s0,0x21
    45b0:	9506                	add	a0,a0,ra
    45b2:	97089607          	0x97089607
    45b6:	9809                	andi	s0,s0,-30
    45b8:	990a                	add	s2,s2,sp
    45ba:	9b0c9a0b          	0x9b0c9a0b
    45be:	000d                	c.nop	3
    45c0:	0028                	addi	a0,sp,8
    45c2:	0000                	unimp
    45c4:	0474                	addi	a3,sp,524
    45c6:	0000                	unimp
    45c8:	ef1c                	sd	a5,24(a4)
    45ca:	ffff                	0xffff
    45cc:	0158                	addi	a4,sp,132
    45ce:	0000                	unimp
    45d0:	4400                	lw	s0,8(s0)
    45d2:	400e                	0x400e
    45d4:	816c                	0x816c
    45d6:	8801                	andi	s0,s0,0
    45d8:	8902                	jr	s2
    45da:	93049203          	lh	tp,-1744(s1)
    45de:	9405                	srai	s0,s0,0x21
    45e0:	9506                	add	a0,a0,ra
    45e2:	97089607          	0x97089607
    45e6:	9809                	andi	s0,s0,-30
    45e8:	990a                	add	s2,s2,sp
    45ea:	0018000b          	0x18000b
    45ee:	0000                	unimp
    45f0:	04a0                	addi	s0,sp,584
    45f2:	0000                	unimp
    45f4:	f048                	sd	a0,160(s0)
    45f6:	ffff                	0xffff
    45f8:	00ac                	addi	a1,sp,72
    45fa:	0000                	unimp
    45fc:	4400                	lw	s0,8(s0)
    45fe:	100e                	c.slli	zero,0x23
    4600:	8148                	0x8148
    4602:	8801                	andi	s0,s0,0
    4604:	0002                	c.slli64	zero
    4606:	0000                	unimp
    4608:	0014                	0x14
    460a:	0000                	unimp
    460c:	04bc                	addi	a5,sp,584
    460e:	0000                	unimp
    4610:	f0d8                	sd	a4,160(s1)
    4612:	ffff                	0xffff
    4614:	0034                	addi	a3,sp,8
    4616:	0000                	unimp
    4618:	4400                	lw	s0,8(s0)
    461a:	100e                	c.slli	zero,0x23
    461c:	8144                	0x8144
    461e:	0001                	nop

Disassembly of section .data:

0000000000010000 :
   10000:	c8a0                	sw	s0,80(s1)
   10002:	002e                	c.slli	zero,0xb

0000000000010004 <.compoundliteral.1>:
   10004:	0080                	addi	s0,sp,64
   10006:	0000                	unimp
   10008:	0080                	addi	s0,sp,64
	...

000000000001000c :
   1000c:	0004                	0x4
   1000e:	0001                	nop

0000000000010010 <.compoundliteral.2>:
   10010:	0000                	unimp
	...

0000000000010014 :
   10014:	0010                	0x10
   10016:	0001                	nop

0000000000010018 :
   10018:	d200                	sw	s0,32(a2)
   1001a:	002e                	c.slli	zero,0xb

000000000001001c :
   1001c:	d20c                	sw	a1,32(a2)
   1001e:	002e                	c.slli	zero,0xb

0000000000010020 :
   10020:	d218                	sw	a4,32(a2)
   10022:	002e                	c.slli	zero,0xb

0000000000010024 :
   10024:	d224                	sw	s1,96(a2)
   10026:	002e                	c.slli	zero,0xb

0000000000010028 <.compoundliteral.7>:
	...

0000000000010030 :
   10030:	0028                	addi	a0,sp,8
   10032:	0001                	nop

0000000000010034 <.compoundliteral.8>:
	...

000000000001003c :
   1003c:	0034                	addi	a3,sp,8
   1003e:	0001                	nop

0000000000010040 <.compoundliteral.9>:
   10040:	0000                	unimp
   10042:	437f                	0x437f

0000000000010044 :
   10044:	0040                	addi	s0,sp,4
   10046:	0001                	nop

0000000000010048 :
   10048:	d230                	sw	a2,96(a2)
   1004a:	002e                	c.slli	zero,0xb

000000000001004c :
   1004c:	d268                	sw	a0,100(a2)
   1004e:	002e                	c.slli	zero,0xb

0000000000010050 :
   10050:	0000                	unimp
	...

0000000000010054 :
   10054:	0000                	unimp
	...

0000000000010058 <.compoundliteral.12>:
   10058:	0000                	unimp
	...

000000000001005c :
   1005c:	0058                	addi	a4,sp,4
   1005e:	0001                	nop

0000000000010060 :
   10060:	d2a8                	sw	a0,96(a3)
   10062:	002e                	c.slli	zero,0xb

0000000000010064 <.compoundliteral.14>:
   10064:	0000                	unimp
	...

0000000000010068 :
   10068:	0064                	addi	s1,sp,12
   1006a:	0001                	nop

000000000001006c <.compoundliteral.15>:
   1006c:	6b28                	ld	a0,80(a4)
   1006e:	4e6e                	lw	t3,216(sp)

0000000000010070 :
   10070:	006c                	addi	a1,sp,12
   10072:	0001                	nop

0000000000010074 :
   10074:	d2b4                	sw	a3,96(a3)
   10076:	002e                	c.slli	zero,0xb

0000000000010078 <.compoundliteral.17>:
   10078:	0000                	unimp
	...

000000000001007c :
   1007c:	0078                	addi	a4,sp,12
   1007e:	0001                	nop

0000000000010080 <.compoundliteral.18>:
   10080:	0000                	unimp
	...

0000000000010084 :
   10084:	0080                	addi	s0,sp,64
   10086:	0001                	nop

0000000000010088 :
   10088:	d2c0                	sw	s0,36(a3)
   1008a:	002e                	c.slli	zero,0xb

000000000001008c :
   1008c:	d2cc                	sw	a1,36(a3)
   1008e:	002e                	c.slli	zero,0xb

0000000000010090 :
   10090:	d2d8                	sw	a4,36(a3)
   10092:	002e                	c.slli	zero,0xb

0000000000010094 :
   10094:	d2e4                	sw	s1,100(a3)
   10096:	002e                	c.slli	zero,0xb

0000000000010098 :
   10098:	d2f0                	sw	a2,100(a3)
   1009a:	002e                	c.slli	zero,0xb

000000000001009c :
   1009c:	d2fc                	sw	a5,100(a3)
   1009e:	002e                	c.slli	zero,0xb

00000000000100a0 :
   100a0:	d308                	sw	a0,32(a4)
   100a2:	002e                	c.slli	zero,0xb

00000000000100a4 :
   100a4:	d314                	sw	a3,32(a4)
   100a6:	002e                	c.slli	zero,0xb

00000000000100a8 <.compoundliteral.27>:
   100a8:	0000                	unimp
	...

00000000000100ac :
   100ac:	00a8                	addi	a0,sp,72
   100ae:	0001                	nop

00000000000100b0 <.compoundliteral.28>:
   100b0:	0000                	unimp
	...

00000000000100b4 :
   100b4:	00b0                	addi	a2,sp,72
   100b6:	0001                	nop

00000000000100b8 <.compoundliteral.29>:
   100b8:	0000                	unimp
	...

00000000000100bc :
   100bc:	00b8                	addi	a4,sp,72
   100be:	0001                	nop

00000000000100c0 <.compoundliteral.30>:
   100c0:	0000                	unimp
	...

00000000000100c4 :
   100c4:	00c0                	addi	s0,sp,68
   100c6:	0001                	nop

00000000000100c8 :
   100c8:	d320                	sw	s0,96(a4)
   100ca:	002e                	c.slli	zero,0xb

00000000000100cc :
   100cc:	0000                	unimp
	...

00000000000100d0 :
	...
  2ec790:	6425                	lui	s0,0x9
  2ec792:	2500                	fld	fs0,8(a0)
  2ec794:	0066                	c.slli	zero,0x19

00000000002ec796 :
  2ec796:	40490fdb          	0x40490fdb

Disassembly of section .sdata:

00000000002ec79c <.sdata>:
  2ec79c:	fa35                	bnez	a2,2ec710 
  2ec79e:	3c8e                	fld	fs9,224(sp)
  2ec7a0:	fa35                	bnez	a2,2ec714 
  2ec7a2:	3c8e                	fld	fs9,224(sp)
  2ec7a4:	fa35                	bnez	a2,2ec718 
  2ec7a6:	3c8e                	fld	fs9,224(sp)
  2ec7a8:	cccd                	beqz	s1,2ec862 
  2ec7aa:	be4c                	fsd	fa1,184(a2)
  2ec7ac:	d70a                	sw	sp,172(sp)
  2ec7ae:	cccd3c23          	sd	a2,-808(s10)
  2ec7b2:	bdcc                	fsd	fa1,184(a1)
  2ec7b4:	cccd                	beqz	s1,2ec86e 
  2ec7b6:	bdcc                	fsd	fa1,184(a1)
  2ec7b8:	d70a                	sw	sp,172(sp)
  2ec7ba:	cccd3c23          	sd	a2,-808(s10)
  2ec7be:	bdcc                	fsd	fa1,184(a1)
  2ec7c0:	bc20                	fsd	fs0,120(s0)
  2ec7c2:	4cbe                	lw	s9,204(sp)
  2ec7c4:	38d1b717          	auipc	a4,0x38d1b
  2ec7c8:	4118c9eb          	0x4118c9eb
  2ec7cc:	999a                	add	s3,s3,t1
  2ec7ce:	3e19                	addiw	t3,t3,-26
  2ec7d0:	7fff                	0x7fff
  2ec7d2:	4454                	lw	a3,12(s0)
  2ec7d4:	40490fdb          	0x40490fdb
  2ec7d8:	cccd                	beqz	s1,2ec892 
  2ec7da:	3d4c                	fld	fa1,184(a0)
  2ec7dc:	cccd                	beqz	s1,2ec896 
  2ec7de:	bdcc                	fsd	fa1,184(a1)
  2ec7e0:	bc20                	fsd	fs0,120(s0)
  2ec7e2:	4cbe                	lw	s9,204(sp)
  2ec7e4:	cccd                	beqz	s1,2ec89e 
  2ec7e6:	3e4c                	fld	fa1,184(a2)
  2ec7e8:	cccd                	beqz	s1,2ec8a2 <.compoundliteral+0x2>
  2ec7ea:	3dcc                	fld	fa1,184(a1)
  2ec7ec:	be2aaaab          	0xbe2aaaab
  2ec7f0:	cccd                	beqz	s1,2ec8aa <.compoundliteral+0xa>
  2ec7f2:	bd4c                	fsd	fa1,184(a0)
  2ec7f4:	0c31                	addi	s8,s8,12
  2ec7f6:	8e39bcc3          	fmadd.q	fs9,fs3,ft3,fa7,rup
  2ec7fa:	aaabbc63          	0xaaabbc63
  2ec7fe:	bdaa                	fsd	fa0,248(sp)
  2ec800:	8889                	andi	s1,s1,2
  2ec802:	bd08                	fsd	fa0,56(a0)
  2ec804:	4925                	li	s2,9
  2ec806:	bc92                	fsd	ft4,120(sp)
  2ec808:	40c90fdb          	0x40c90fdb
  2ec80c:	c0c90fdb          	0xc0c90fdb
  2ec810:	3f490fdb          	0x3f490fdb
  2ec814:	3fc90fdb          	0x3fc90fdb
  2ec818:	40490fdb          	0x40490fdb
  2ec81c:	cbe4                	sw	s1,84(a5)
  2ec81e:	4096                	lw	ra,68(sp)
  2ec820:	cbe4                	sw	s1,84(a5)
  2ec822:	c096                	sw	t0,64(sp)
  2ec824:	bdaaaaab          	0xbdaaaaab
  2ec828:	8889                	andi	s1,s1,2
  2ec82a:	bd08                	fsd	fa0,56(a0)
  2ec82c:	4925                	li	s2,9
  2ec82e:	bc92                	fsd	ft4,120(sp)
  2ec830:	bfc90fdb          	0xbfc90fdb
  2ec834:	be2aaaab          	0xbe2aaaab
  2ec838:	cccd                	beqz	s1,2ec8f2 <.compoundliteral+0x52>
  2ec83a:	bd4c                	fsd	fa1,184(a0)
  2ec83c:	0c31                	addi	s8,s8,12
  2ec83e:	8e39bcc3          	fmadd.q	fs9,fs3,ft3,fa7,rup
  2ec842:	0fdbbc63          	0xfdbbc63
  2ec846:	3fc9                	addiw	t6,t6,-14
  2ec848:	beaaaaab          	0xbeaaaaab
  2ec84c:	cccd                	beqz	s1,2ec906 <.compoundliteral+0x66>
  2ec84e:	3e4c                	fld	fa1,184(a2)
  2ec850:	4925                	li	s2,9
  2ec852:	be12                	fsd	ft4,312(sp)
  2ec854:	8e39                	xor	a2,a2,a4
  2ec856:	2e8c3de3          	0x2e8c3de3
  2ec85a:	bdba                	fsd	fa4,248(sp)
  2ec85c:	89d9                	andi	a1,a1,22
  2ec85e:	3d9d                	addiw	s11,s11,-25
  2ec860:	8889                	andi	s1,s1,2
  2ec862:	bd88                	fsd	fa0,56(a1)
  2ec864:	f0f1                	bnez	s1,2ec828 
  2ec866:	3d70                	fld	fa2,248(a0)
  2ec868:	9436                	add	s0,s0,a3
  2ec86a:	13cdbd57          	0x13cdbd57
  2ec86e:	3ed4                	fld	fa3,184(a3)
  2ec870:	827a                	mv	tp,t5
  2ec872:	401a                	0x401a
  2ec874:	beaaaaab          	0xbeaaaaab
  2ec878:	cccd                	beqz	s1,2ec932 <.compoundliteral+0x92>
  2ec87a:	3e4c                	fld	fa1,184(a2)
  2ec87c:	4925                	li	s2,9
  2ec87e:	be12                	fsd	ft4,312(sp)
  2ec880:	8e39                	xor	a2,a2,a4
  2ec882:	2e8c3de3          	0x2e8c3de3
  2ec886:	bdba                	fsd	fa4,248(sp)
  2ec888:	89d9                	andi	a1,a1,22
  2ec88a:	3d9d                	addiw	s11,s11,-25
  2ec88c:	8889                	andi	s1,s1,2
  2ec88e:	bd88                	fsd	fa0,56(a1)
  2ec890:	f0f1                	bnez	s1,2ec854 
  2ec892:	3d70                	fld	fa2,248(a0)
  2ec894:	9436                	add	s0,s0,a3
  2ec896:	0fdbbd57          	0xfdbbd57
  2ec89a:	3fc9                	addiw	t6,t6,-14
  2ec89c:	3f490fdb          	0x3f490fdb

Disassembly of section .bss:

00000000002ec8a0 <.compoundliteral>:
	...

00000000002ed200 <.compoundliteral.3>:
	...

00000000002ed20c <.compoundliteral.4>:
	...

00000000002ed218 <.compoundliteral.5>:
	...

00000000002ed224 <.compoundliteral.6>:
	...

00000000002ed230 <.compoundliteral.10>:
	...

00000000002ed268 <.compoundliteral.11>:
	...

00000000002ed2a8 <.compoundliteral.13>:
	...

00000000002ed2b4 <.compoundliteral.16>:
	...

00000000002ed2c0 <.compoundliteral.19>:
	...

00000000002ed2cc <.compoundliteral.20>:
	...

00000000002ed2d8 <.compoundliteral.21>:
	...

00000000002ed2e4 <.compoundliteral.22>:
	...

00000000002ed2f0 <.compoundliteral.23>:
	...

00000000002ed2fc <.compoundliteral.24>:
	...

00000000002ed308 <.compoundliteral.25>:
	...

00000000002ed314 <.compoundliteral.26>:
	...

00000000002ed320 <.compoundliteral.31>:
	...

Disassembly of section .heap:

00000000002ed32c <_sheap>:
	...

Disassembly of section .stack:

00000000002ed52c <_estack>:
	...